(dp0
S'alfredo carretero tejeda'
p1
S'mc'
p2
sS'nancy yadira santiago marcos'
p3
S'morena-pt-pes'
p4
sS'saul de jesus romero martinez'
p5
S'pan'
p6
sS'juan ramon mastretta lopez'
p7
g6
sS'myriam cecilia sanchez barron'
p8
S'pan-prd-mc'
p9
sS'juan gustavo martinez castillo'
p10
S'panal'
p11
sS'ruben eduardo venadero medinilla'
p12
S'prd'
p13
sS'aaron morales diaz'
p14
g6
sS'margarita ibarra villanueva'
p15
S'pri-pvem-panal'
p16
sS'elias galeana morales'
p17
g2
sS'ignacio jose mu\xc3\x91oz hernandez'
p18
S'pri'
p19
sS'berenice arellano aguirre'
p20
g19
sS'angelica clementina mireles belmonte'
p21
g19
sS'alberto ca\xc3\x91as garcia'
p22
g13
sS'salvador isaac ginori reyes'
p23
g11
sS'karla vivell martinez zendejas'
p24
S'pvem'
p25
sS'martha patricia garcia garcia'
p26
g19
sS'ma felix mondragon jaramillo'
p27
g2
sS'antonio silva oropeza'
p28
g25
sS'elsy angelina loeza molina'
p29
g6
sS'jesus alejandro vazquez padilla'
p30
S'pes'
p31
sS'alfredo porras dominguez'
p32
g4
sS'celestino pino guevara'
p33
g19
sS'jose terencio valenzuela gallegos'
p34
S'indep'
p35
sS'katia alejandra castillo lozano'
p36
S'morena'
p37
sS'alma rosa ortiz gonzalez'
p38
g2
sS'hector pedraza olguin'
p39
g16
sS'norma elizabeth chavez arias'
p40
g19
sS'brenda espinoza lopez'
p41
g37
sS'jose mario resendiz feregrino'
p42
g13
sS'daniel sanchez martinez'
p43
g9
sS'giovanni soto cordova'
p44
g31
sS'ruth gabriela goldschmied guasch'
p45
g16
sS'mario ismael moreno gil'
p46
g4
sS'antonio ventura gonzalez'
p47
g13
sS'martha ramirez molina'
p48
g11
sS'irma yoseline miranda castro'
p49
g11
sS'vanesa garza lara'
p50
g25
sS'maria del carmen barcenas arredondo'
p51
S'pt'
p52
sS'marina esteffani serrano pe\xc3\x91a'
p53
g13
sS'jorge luis preciado rodriguez'
p54
g6
sS'sandra soledad contreras quijano'
p55
g52
sS'miguel ramon martin azueta'
p56
g9
sS'evangelina casanova pachuca'
p57
g25
sS'alma edith hurtado mendoza'
p58
g25
sS'ricardo torres mendoza'
p59
g52
sS'mario alberto rodriguez hernandez'
p60
g25
sS'maria de los angeles vazquez haas'
p61
g25
sS'maria zita loya argumedo'
p62
g13
sS'lilia cirilo eligio'
p63
g52
sS'maria del carmen bautista merino'
p64
g52
sS'jose alejandro chavez bello'
p65
g2
sS'mario alberto rodriguez carrillo'
p66
g9
sS'catalina maximo perez'
p67
g2
sS'armando javier zertuche zuani'
p68
g4
sS'raul zarrabal ferat'
p69
g19
sS'eduardo hernandez de la cruz'
p70
g52
sS'rosa maria castillo flores'
p71
g25
sS'mario alberto mares carbajal'
p72
g25
sS'teresa burelo cortazar'
p73
g4
sS'ricardo villarreal garcia'
p74
g9
sS'francisco lima garza'
p75
g25
sS'carlos alberto perez cardenas'
p76
g11
sS'marisol acevedo ortega'
p77
g9
sS'luis miguel garcia sosa'
p78
g6
sS'sergio francisco quintero ortiz'
p79
g6
sS'yolanda flores valdez'
p80
g4
sS'roberto angel dominguez rodriguez'
p81
g4
sS'ana lilia chavez jauregui'
p82
g13
sS'mariana erandi nassar pi\xc3\x91eyro'
p83
g19
sS'juan victor manuel trujillo lopez'
p84
g11
sS'oscar perez gallardo cuevas'
p85
g19
sS'maria enriqueta lozano cantu'
p86
g13
sS'luis manuel vazquez puga colmenares'
p87
g19
sS'marilda elisa rodriguez aguirre'
p88
g19
sS'luis antonio pe\xc3\x91a salinas'
p89
g25
sS'dolly ariana gonzalez solis'
p90
g2
sS'rosalba rodriguez garcia'
p91
g11
sS'maria juana georgina miranda arroyo'
p92
g13
sS'jesus salda\xc3\x91a lopez'
p93
g9
sS'maria antonieta perez reyes'
p94
g35
sS'janet adriana hernandez sotelo'
p95
g11
sS'ligia rosalia requenes espinosa'
p96
g11
sS'israel soto pe\xc3\x91a'
p97
g13
sS'julio cesar angeles mendoza'
p98
g37
sS'mary tony gasque lopez'
p99
g16
sS'mayra elizabeth sosa jimenez'
p100
g13
sS'eloy mendez balderrama'
p101
g13
sS'irving manuel ayuso mendez'
p102
g6
sS'teofilo manuel garcia corpus'
p103
g13
sS'maria alejandra cuevas castro'
p104
g2
sS'jesus eduardo mu\xc3\x91oz de leon'
p105
g25
sS'hector valdes suarez'
p106
g2
sS'jose cristobal flores alejandro'
p107
g11
sS'marco antonio vargas arizpe'
p108
g13
sS'manuel humberto cota jimenez'
p109
g19
sS'sergio ivan martinez salazar'
p110
g25
sS'j. dimas sagahon hernandez'
p111
g11
sS'rodolfo yamil bermudez habib'
p112
g16
sS'carmen paola sanchez salgado'
p113
g13
sS'andres garcia vazquez'
p114
g25
sS'miguel lucien burle rodriguez'
p115
g31
sS'oscar rosales jimenez'
p116
g11
sS'marco antonio reyes colin'
p117
g4
sS'juan arturo reyna rodriguez'
p118
g52
sS'maria del rocio guadarrama garcia'
p119
g6
sS'marco tulio rosas romero'
p120
g4
sS'hector miguel paniagua salazar'
p121
g9
sS'agust\xc3\x8dn chaires dom\xc3\x8dnguez'
p122
g25
sS'juan carlos garcia christeinicke'
p123
g19
sS'ivon monserrat maya hernandez'
p124
g25
sS'jorge jaaziel gonzalez robles'
p125
g31
sS'felix gonzalez texta'
p126
g13
sS'olivia martinez leyva'
p127
g16
sS'eliseo carlos porraz velasco'
p128
g31
sS'santa marlen villeda garcia'
p129
g11
sS'justino eugenio arriaga rojas'
p130
g9
sS'itzcoatl tonatiuh bravo padilla'
p131
g2
sS'laura hernandez garcia'
p132
g2
sS'eda myrna martinez pazaran'
p133
g31
sS'isaias cura mu\xc3\x91oz'
p134
g11
sS'luis enrique miranda nava'
p135
g19
sS'valeria chavez hernandez'
p136
g52
sS'jose juan parada marquez'
p137
g19
sS'noe israel betanzos barroso'
p138
g25
sS'marco antonio medina perez'
p139
g37
sS'blanca azucena jimenez pazaran'
p140
g13
sS'juan carlos rolon lacarriere'
p141
g11
sS'josue farelas pacheco'
p142
g31
sS'efrain rocha vega'
p143
g37
sS'angel moroni lopez gallego'
p144
g31
sS'yolanda martinez mendoza'
p145
g11
sS'minerva castillo rodriguez'
p146
g19
sS'armando flores heredia'
p147
g9
sS'monica irma arana soriano'
p148
g19
sS'adriana del carmen monroy redondo'
p149
g31
sS'alma lorena antunez garcia'
p150
g19
sS'nancy claudia resendiz hernandez'
p151
g4
sS'alma lorena vazquez sifuentes'
p152
g11
sS'ines leal grande\xc3\x91o'
p153
g25
sS'maria concepcion huerta salgado'
p154
g19
sS'martha adriana centeno aranda'
p155
g13
sS'alma mireya cortina garcia'
p156
g19
sS'maria isabel lopez hernandez'
p157
g52
sS'david valle peralta'
p158
g19
sS'jose adrian figueroa hernandez'
p159
g37
sS'juan linares montufar'
p160
g52
sS'juan medina hernandez'
p161
g9
sS'yazmin cortes huerta'
p162
g25
sS'nelson hernandez candia'
p163
g52
sS'fred rafael herrera vazquez'
p164
g11
sS'jorge armando zarate medina'
p165
g16
sS'emilio manuel rivas aguilera'
p166
g19
sS'adolfo villarreal valladares'
p167
g37
sS'graciela ortiz gonzalez'
p168
g19
sS'elias abaid kuri'
p169
g2
sS'deyanira tapia aguilera'
p170
g31
sS'carmen patricia palma olvera'
p171
g4
sS'maria vanessa barahona de la rosa'
p172
g19
sS'beatriz silvia robles gutierrez'
p173
g4
sS'alma lorena lopez silva'
p174
g52
sS'aldo emmanuel ruiz sanchez'
p175
g37
sS'mariana isabel verduga palencia'
p176
g2
sS'maria alejandra bautista lopez'
p177
g25
sS'leticia monroy pedraza'
p178
g25
sS'eudes alejandro izquierdo salas'
p179
g25
sS'perla yadira escalante dominguez'
p180
g2
sS'jose federico luna gonzalez'
p181
g11
sS'in\xc3\x89s parra ju\xc3\x81rez'
p182
g4
sS'hiram hernandez zetina'
p183
g19
sS'emilse miranda munive'
p184
g16
sS'irma leticia tirado sandoval'
p185
g16
sS'vicente javier verastegui ostos'
p186
g9
sS'ma. guadalupe mondragon gonzalez'
p187
g6
sS'dulce antonieta tavares navarrete'
p188
g52
sS'yolanda cruz mu\xc3\x91oz'
p189
g11
sS'edgar guzm\xc3\x81n valdez'
p190
g4
sS'david orihuela nava'
p191
g4
sS'rafael alberto aguilar vazquez'
p192
g11
sS'jorge osvaldo valdez vargas'
p193
g13
sS'felipe antunez luna'
p194
g11
sS'erendira quiroz salcedo'
p195
g52
sS'm\xc3\x93nica fajardo valdez'
p196
g11
sS'mabel guadalupe haro peralta'
p197
g31
sS'martin antonio valdivia gonzalez'
p198
g19
sS'ana bertha haro sanchez'
p199
g16
sS'brenda maria izontli alvarado sanchez'
p200
g16
sS'nicolas casta\xc3\x91eda tejeda'
p201
g31
sS'juan ernesto almaraz gonzalez'
p202
g11
sS'juan jose vargas trejo'
p203
g11
sS'cristopher denis rivas copado'
p204
g13
sS'jorge chang valenzuela'
p205
g13
sS'ernesto gabriel robinson teran'
p206
g9
sS'juan ramon lopez naranjo'
p207
g9
sS'jorge angel palacios rodriguez'
p208
g13
sS'gabriela cisneros ruiz'
p209
g19
sS'judith grace gonzalez hincks'
p210
g4
sS'martha maria zepeda del toro'
p211
g9
sS'noelia tinoco carvajal'
p212
g52
sS'zenen aaron xochihua enciso'
p213
g9
sS'benito medina herrera'
p214
g19
sS'oscar gonzalez ya\xc3\x91ez'
p215
g52
sS'antonia sofia flores lozano'
p216
g13
sS'luis carlos villarreal villarreal'
p217
g6
sS'edgar ivan cervantes garfia'
p218
g11
sS'ana karina lopez espino'
p219
g19
sS'jose guillermo arechiga santamaria'
p220
g4
sS'ericka guadalupe bautista gonzalez'
p221
g52
sS'roque luis rabelo velasco'
p222
g4
sS'carolina barrios hernandez'
p223
g11
sS'pablo saavedra pulido'
p224
g52
sS'rosa maria hurtado marin'
p225
g9
sS'katya stephania gonzalez herrera'
p226
g13
sS'lucia aguilar carrillo'
p227
g19
sS'arturo roberto hernandez tapia'
p228
g4
sS'jesus sergio alcantara nu\xc3\x91ez'
p229
g25
sS'janet fuentes bonilla'
p230
g6
sS'aaron enrique saenz paniagua'
p231
g13
sS'sarai nu\xc3\x91ez ceron'
p232
g9
sS'ana yeli garcia aguirre'
p233
g25
sS'lietza maria rodriguez velasco'
p234
g31
sS'rodrigo guzman de llano'
p235
g25
sS'jorge arana arana'
p236
g19
sS'patricia osuna fuentes'
p237
g25
sS'hector eduardo velasco monroy'
p238
g16
sS'juan carlos romero hicks'
p239
g9
sS'limber pelaez zurita'
p240
g25
sS'marcos francisco gonzalez nu\xc3\x91ez'
p241
g6
sS'ana karen bustamante hernandez'
p242
g52
sS'jesus carlos vidal peniche'
p243
g16
sS'karla michaeel escalante ramirez'
p244
g11
sS'gloria ivette bazan villarreal'
p245
g2
sS'anabel pulido lopez'
p246
g6
sS'alipio ovando maga\xc3\x91a'
p247
g9
sS'tomas gabriel pe\xc3\x91a lezama'
p248
g31
sS'celia morales marcelino'
p249
g2
sS'maria amparo alvarez castilla'
p250
g19
sS'maria del rosario nevarez chavez'
p251
g31
sS'ana gabriela guevara espinoza'
p252
g52
sS'filomeno romano bonifacio'
p253
g52
sS'marco antonio g\xc3\x93mez alcantar'
p254
g25
sS'daniel eduardo esquivel fernandez'
p255
g52
sS'claudia andrade elizalde'
p256
g4
sS'margarita vargas zamarron'
p257
g6
sS'maria marcela torres peimbert'
p258
g6
sS'erika guadalupe paredes zu\xc3\x91iga'
p259
g6
sS'jose natividad geronimo dominguez'
p260
g11
sS'ladybel correa gonzalez'
p261
g25
sS'jose oros nu\xc3\x91ez'
p262
g11
sS'armando quezada chavez'
p263
g11
sS'ciro sales ruiz'
p264
g37
sS'jose lauro arestegui verdugo'
p265
g19
sS'amparo p\xc3\x89rez valenzuela'
p266
g11
sS'mario alonso sanchez ruiz'
p267
g11
sS'jesus javier monsreal cabrera'
p268
g13
sS'j. paz gerardo sandoval rodriguez'
p269
g9
sS'maria candelaria gonzalez galicia'
p270
g9
sS'jazmin yaneli villanueva moo'
p271
g4
sS'eleaney sesma'
p272
g25
sS'oscar medina valdivia'
p273
g13
sS'ali cesar euan blanco'
p274
g13
sS'joaquin rodriguez perez'
p275
g11
sS'manuel antunez alvarez'
p276
g2
sS'hector joel villegas gonzalez'
p277
g4
sS'juan \xc3\x81ngel bautista bravo'
p278
g4
sS'jose misael sanchez hernandez'
p279
g13
sS'arturo sandoval canals'
p280
g25
sS'miguel angel villegas soto'
p281
g9
sS'eduardo hernandez fernandez'
p282
g6
sS'miguel angel jauregui montes de oca'
p283
g4
sS'nestor camarillo medina'
p284
g19
sS'andrea amaya mart\xc3\x8dnez'
p285
g11
sS'jonathan escobedo doniz'
p286
g25
sS'ernesto laguardia longega'
p287
g11
sS'abraham david mier nogales'
p288
g4
sS'adriana lozano rodriguez'
p289
g4
sS'natividad rosas chavez'
p290
g13
sS'jurgen ganser carbajal'
p291
g35
sS'valentin reyes lopez'
p292
g4
sS'martin dimas zamora'
p293
g52
sS'valeria nieto reynoso'
p294
g31
sS'efrain caballero sandoval'
p295
g31
sS'jaime eduardo ramos salinas'
p296
g11
sS'silvia guadalupe garza galv\xc3\x81n'
p297
g6
sS'erika bravo contreras'
p298
g9
sS'gloria juarez torres'
p299
g2
sS'angelica olguin carrillo'
p300
g4
sS'leonardo arturo guillen medina'
p301
g9
sS'carolina due\xc3\x91as cortazar'
p302
g2
sS'arturo lavenant buendia'
p303
g25
sS'ana elizabeth lopez sotelo'
p304
g19
sS'nadia edith morales espericueta'
p305
g6
sS'hilda juarez pi\xc3\x91a'
p306
g13
sS'martha elena garcia gomez'
p307
g6
sS'jose alberto quevedo alvarez'
p308
g2
sS'araceli garcia rico'
p309
g19
sS'maria luisa matus fuentes'
p310
g16
sS'maria teresa maru mejia'
p311
g4
sS'jesus gonzalez macias'
p312
g25
sS'carlos  alberto lorea salinas'
p313
g6
sS'ma del rosario piedra ibarra'
p314
g4
sS'mauricio alonso toledo gutierrez'
p315
g13
sS'nayeli salvatori bojalil'
p316
g4
sS'edith garcia cardenas'
p317
g31
sS'lorena del socorro jimenez andrade'
p318
g4
sS'mauricio prieto gomez'
p319
g9
sS'regina guadalupe rodriguez hernandez'
p320
g25
sS'j. jesus carranza diaz'
p321
g52
sS'maria magdalena chan pech'
p322
g6
sS'mariana sophia marquez laureano'
p323
g19
sS'laura angelica rojas hernandez'
p324
g6
sS'norma angelica castorena berrelleza'
p325
g16
sS'ediltrudis rodriguez arellano'
p326
g37
sS'julio cesar ibarra mendoza'
p327
g11
sS'isaias gonzalez cuevas'
p328
g19
sS'ruth cegueda aguilar'
p329
g52
sS'marcos aguilar vega'
p330
g6
sS'victor gonzalez romero'
p331
g13
sS'delfino corona arana'
p332
g25
sS'jesus miguel giacoman roman'
p333
g11
sS'agustin reynaldo huerta gonzalez'
p334
g37
sS'maribel guadalupe villase\xc3\x91or davila'
p335
g19
sS'javier dessaix juarez roman'
p336
g19
sS'mario hernandez herrera'
p337
g35
sS'ma del pilar vadillo ruiz'
p338
g16
sS'elena achar samra'
p339
g19
sS'maria leticia ceron camacho'
p340
g11
sS'niza biaani hernandez matus'
p341
g19
sS'guillermo herrera hernandez'
p342
g25
sS'pedro montalvo gomez'
p343
g19
sS'magdalena del socorro nu\xc3\x91ez monreal'
p344
g52
sS'emilio xavier casta\xc3\x91eda casta\xc3\x91eda'
p345
g25
sS'grecia samantha hernandez martinez'
p346
g19
sS'alejandro lopez ibarra'
p347
g4
sS'yolanda rueda de la cruz'
p348
g19
sS'raymundo garza vilchis'
p349
g9
sS'ana lucia riojas martinez'
p350
g6
sS'angela maria perera gutierrez'
p351
g19
sS'josue isai bazan gonzalez'
p352
g25
sS'jesus perez ramirez'
p353
g31
sS'ernesto vargas contreras'
p354
g31
sS'felipe arturo marquez sanchez'
p355
g25
sS'ana lilia herrera anzaldo'
p356
g19
sS'jose guadalupe nu\xc3\x91ez rodriguez'
p357
g25
sS'america victoria aguilar gil'
p358
g4
sS'viridiana mercado gutierrez'
p359
g2
sS'lyrsa ilian mesa gutierrez'
p360
g6
sS'yatxil amellalli caballero tellez'
p361
g9
sS'armando tejeda cid'
p362
g9
sS'josefa escobar peralta'
p363
g6
sS'martha alicia escamilla leon'
p364
g16
sS'monica bedoya serna'
p365
g9
sS'xochitl nashielly zagal ram\xc3\x8drez'
p366
g4
sS'ma olga garza rodriguez'
p367
g19
sS'alfonso vazquez mu\xc3\x91oz'
p368
g4
sS'alfonso godinez pichardo'
p369
g19
sS'francisco javier ramirez navarrete'
p370
g37
sS'ioel vazquez bailon'
p371
g25
sS'lady yared salomon aguilar'
p372
g52
sS'salvador barajas del toro'
p373
g19
sS'karina ladino ochoa'
p374
g6
sS'santiago roberto estrada velarde'
p375
g19
sS'martin morales henestrosa y torres'
p376
g19
sS'damian guadalupe maldonado escalante'
p377
g6
sS'maria elizabeth flores vazquez'
p378
g4
sS'juan enrique farrera esponda'
p379
g4
sS'nelyda moci\xc3\x91os jimenez'
p380
g9
sS'teresita marmolejo lopez'
p381
g25
sS'maribel acevedo bueno'
p382
g19
sS'jose manuel delgadillo moreno'
p383
g6
sS'xochitl guadalupe jimenez zavaleta'
p384
g2
sS'ximena puente de la mora'
p385
g19
sS'eraclio rodriguez gomez'
p386
g4
sS'maria teresa orozco escobedo'
p387
g31
sS'alfredo femat ba\xc3\x91uelos'
p388
g52
sS'elena edith segura trejo'
p389
g9
sS'martha alicia mendoza melendrez'
p390
g11
sS'guillermo balboa villegas'
p391
g25
sS'mirna zabeida maldonado tapia'
p392
g4
sS'carlos eugenio barrios rosales'
p393
g2
sS'susana pichardo pereyra'
p394
g16
sS'maria libier gonzalez anaya'
p395
g2
sS'maria elena ortega cortes'
p396
g9
sS'fatima davila gonzalez'
p397
g25
sS'armando montiel sanchez'
p398
g25
sS'marco antonio carbajal miranda'
p399
g37
sS'susana meraz rodriguez'
p400
g11
sS'alicia sofia ganem rivas'
p401
g2
sS'norma angelica aceves garcia'
p402
g19
sS'rodolfo segura montes'
p403
g19
sS'adalberto galeana reyes'
p404
g25
sS'maria emilia ramos hernandez'
p405
g6
sS'elizabeth garc\xc3\x8da garc\xc3\x89s'
p406
g11
sS'patricia del carmen de la cruz delucio'
p407
g37
sS'rita jannely dzib medina'
p408
g19
sS'lorena morales sandoval'
p409
g11
sS'ricardo ruben melendez pe\xc3\x91a'
p410
g52
sS'jose angel trevi\xc3\x91o garcia'
p411
g25
sS'yaneli dominguez miros'
p412
g13
sS'francisco xabier albizuri morett'
p413
g6
sS'nereyda salda\xc3\x91a gallegos'
p414
g9
sS'margarita garcia garcia'
p415
g4
sS'eduardo zarzosa sanchez'
p416
g16
sS'annia sarahi gomez cardenas'
p417
g6
sS'lucero dinorah navarrete enriquez'
p418
g52
sS'efrain rene correa lopez'
p419
g11
sS'francisco javier luevano nu\xc3\x91ez'
p420
g9
sS'manuel limon hernandez'
p421
g19
sS'esmeralda cuevas quintanar'
p422
g13
sS'sergio leyva ramirez'
p423
g13
sS'fabricio israel corona vizcarra'
p424
g19
sS'maria del pilar contreras soto'
p425
g4
sS'nuri hernandez lopez'
p426
g52
sS'jannet tellez infante'
p427
g37
sS'erendira mendoza campos'
p428
g11
sS'adolfo torres ramirez'
p429
g6
sS'luis renan dominguez rosado'
p430
g31
sS'frine soraya cordova moran'
p431
g19
sS'mar\xc3\x8da de los angeles gallegos rodr\xc3\x8dguez'
p432
g25
sS'israel betanzos cortes'
p433
g19
sS'adolfo ruiz garcia'
p434
g11
sS'renato maldonado gomez'
p435
g16
sS'victor gabriel varela lopez'
p436
g4
sS'luis enrique godinez granillo'
p437
g13
sS'sandra simey olvera bautista'
p438
g37
sS'lidia arguello acosta'
p439
g6
sS'cruz esther quevedo castillo'
p440
g11
sS'pablo gil delgado ventura'
p441
g2
sS'celina velazquez salazar'
p442
g16
sS'francisco martin vela gil'
p443
g16
sS'erick gomez de la cruz'
p444
g52
sS'elizabeth delgado guerrero'
p445
g2
sS'juan manuel crisostomo zamudio'
p446
g11
sS'jesus david cortez acosta'
p447
g13
sS'david oswaldo pacheco rojas'
p448
g52
sS'maritza rubi cortes mercado'
p449
g31
sS'amparo alcantara portuguez'
p450
g25
sS'ernestina farias sandoval'
p451
g52
sS'ociel hugar garcia trujillo'
p452
g9
sS'tiburcio eugenio vazquez ruiz'
p453
g4
sS'sergio mejia estrada'
p454
g52
sS'jose luis duran reveles'
p455
g9
sS'hortencia flores camon'
p456
g25
sS'lucio de jesus jimenez'
p457
g37
sS'jose rosales gutierrez'
p458
g2
sS'adriana morales ibarra'
p459
g13
sS'rocio sari\xc3\x91ana hernandez'
p460
g11
sS'ignacio martinez cruz'
p461
g25
sS'anfernee antonio araiza martinez'
p462
g31
sS'aracely sauceda perez'
p463
g2
sS'jairo salvador perez cabrera'
p464
g25
sS'erendira joya ramirez'
p465
g25
sS'cuauhtemoc arguello palomo'
p466
g2
sS'claudia patricia salcedo serrano'
p467
g31
sS'elier garcia mares'
p468
g2
sS'silvia razcon galaz'
p469
g2
sS'j guadalupe gomez de lara'
p470
g2
sS'maria del rosario solis hernandez'
p471
g19
sS'ian karla schleske de ari\xc3\x91o'
p472
g25
sS'jose juan tovilla marin'
p473
g2
sS'alma marina vitela rodriguez'
p474
g4
sS'juan gabriel robles ballinas'
p475
g9
sS'alejandro laloth berber'
p476
g11
sS'jesus hector mu\xc3\x91oz escobar'
p477
g19
sS'evangelina del carmen zapata dittrich'
p478
g19
sS'ana erika santana gonzalez'
p479
g19
sS'victor manuel manriquez gonzalez'
p480
g9
sS'dora luz nu\xc3\x91ez gracia'
p481
g25
sS'bertha martinez morin'
p482
g6
sS'ana gabriela mena pastrano'
p483
g11
sS'cristina martinez rascon'
p484
g25
sS'pablo cesar gonzalez garcia'
p485
g19
sS'jose luis ortiz vargas'
p486
g25
sS'maria minerva garcia isidro'
p487
g25
sS'clara leticia gonzalez cervantes'
p488
g11
sS'bonifacio jimenez andres'
p489
g11
sS'miguel angel chico herrera'
p490
g37
sS'victor joel echeverria valenzuela'
p491
g35
sS'jose gerardo elizarraras vasquez'
p492
g2
sS'maribel america sandoval morales'
p493
g13
sS'alis serapio cantu'
p494
g52
sS'brenda guadalupe loces loya'
p495
g25
sS'anavel fernandez martinez'
p496
g19
sS'carlos enrique san juan cruz'
p497
g25
sS'luis eleusis leonidas cordova moran'
p498
g19
sS'rosalba valencia cruz'
p499
g37
sS'yesica bibiana zumaya yepiz'
p500
g13
sS'arcelia maria gonzalez gonzalez'
p501
g19
sS'briseida cemiramis castro lopez'
p502
g52
sS'ana gabriela alvarez maynez'
p503
g2
sS'victor rafael gonzalez manriquez'
p504
g9
sS'oscar alejandro flores escobar'
p505
g6
sS'jose manuel lopez garcia'
p506
g13
sS'enrique gerardo barney medina'
p507
g25
sS'jose sanchez aguilar'
p508
g6
sS'lorena cuellar cisneros'
p509
g37
sS'ana lilia manzo martinez'
p510
g13
sS'carlos alberto madson penagos'
p511
g13
sS'carlos alberto trujillo vidal'
p512
g52
sS'leticia rodriguez rodriguez'
p513
g31
sS'delfino l\xc3\x93pez aparicio'
p514
g4
sS'oscar daniel martinez terrazas'
p515
g6
sS'alfonso del moral hernandez'
p516
g11
sS'monica bautista rodriguez'
p517
g13
sS'pedro pablo perez lopez'
p518
g31
sS'monica lucero guevara'
p519
g13
sS'zeus javier chavez ochoa'
p520
g11
sS'elvia ilse holguera altamirano'
p521
g19
sS'alfredo pe\xc3\x91a rivera'
p522
g25
sS'carlos velazquez garcia'
p523
g19
sS'jannet hernandez de la cruz'
p524
g31
sS'abdon ramirez manjarrez'
p525
g13
sS'luis alberto zapata ortiz'
p526
g2
sS'marco antonio ortiz jacome'
p527
g11
sS'augusto fernando avalos longoria'
p528
g9
sS'mayra guadalupe caballero green'
p529
g31
sS'enrique aubry de castro palomino'
p530
g25
sS'marco antonio zaldivar espejel'
p531
g19
sS'felisa leonor soto reyes'
p532
g13
sS'israel angel ramirez'
p533
g6
sS'rene roldan perez'
p534
g6
sS'marco raul luna ramirez'
p535
g25
sS'federico rojas veloquio'
p536
g13
sS'mirna garcia lopez'
p537
g52
sS'julio nicandro hernandez hernandez'
p538
g2
sS'francisco javier guzman de la torre'
p539
g37
sS'martha sanchez sanchez'
p540
g31
sS'pedro caballero hernandez'
p541
g11
sS'emilia vega uribe'
p542
g11
sS'jorge eugenio russo salido'
p543
g2
sS'ramon fernandez solana'
p544
g19
sS'irma juan carlos'
p545
g4
sS'laura nancy cisneros valdivia'
p546
g13
sS'maria isabel de leon carmona'
p547
g6
sS'ana maria morales mayoral'
p548
g19
sS'maria del carmen bautista pelaez'
p549
g4
sS'delfina broca hernandez'
p550
g52
sS'israel fierro terrazas'
p551
g31
sS'antonio lopez andres'
p552
g4
sS'fernanda gutierrez torres landa'
p553
g25
sS'maria del rocio cortes aguilar'
p554
g25
sS'gloria naxhiely estrada bautista'
p555
g9
sS'hipolito cardenas lozano'
p556
g25
sS'julio cesar murillo valtierra'
p557
g13
sS'luis fernando rodriguez ayala'
p558
g25
sS'alfonso felipe josefa'
p559
g4
sS'anita sanchez castro'
p560
g4
sS'martin de la cruz lira alvarez'
p561
g25
sS'roberto eduardo adame ochoa'
p562
g2
sS'rita olivia burgos villaescusa'
p563
g9
sS'jaime amado lopez gomez'
p564
g9
sS'elena berenice castillo santillan'
p565
g11
sS'silvia mendoza aguilar'
p566
g52
sS'anna martha juarez diaz'
p567
g11
sS'maria cristina gomez rivas'
p568
g19
sS'david ricardo alcazar lopez'
p569
g13
sS'guadalupe ramos sotelo'
p570
g4
sS'ramses cortes urrea'
p571
g52
sS'mariann gomez duran'
p572
g25
sS'gabriela guadalupe valdespino mojica'
p573
g25
sS'marcos romero sanchez'
p574
g13
sS'maria catalina ancona samos'
p575
g13
sS'carlos guillermo d\xc3\x8daz robles'
p576
g37
sS'carolina chel mauries'
p577
g13
sS'eduardo ignacio neil cueva ruiz'
p578
g16
sS'ausencio cruz antillon'
p579
g4
sS'pedro moreno nu\xc3\x91ez'
p580
g31
sS'tita nieva aguirre'
p581
g9
sS'sonia elvira resendiz becerril'
p582
g2
sS'luz estefania rosas martinez'
p583
g13
sS'maria luisa gudi\xc3\x91o aguilar'
p584
g16
sS'maria elena salda\xc3\x91a ramirez'
p585
g16
sS'ivan arturo rodriguez rivera'
p586
g6
sS'juan pablo ruiz ruiz'
p587
g2
sS'ilse verenice pacheco neri'
p588
g25
sS'antonio sosa lopez'
p589
g19
sS'anamia mendez ortega'
p590
g9
sS'silvia georgina aguilar garza'
p591
g6
sS'adriana lopez quintero'
p592
g19
sS'roberto gonzalez maciel'
p593
g11
sS'tania elizabeth partida hernandez'
p594
g6
sS'ninfa elide martinez lazcano'
p595
g11
sS'roberto eduardo puig ramirez'
p596
g25
sS'silvia nancy garcia trevi\xc3\x91o'
p597
g25
sS'diana aurora rodriguez rubio'
p598
g25
sS'ma. de jesus martinez cadenas'
p599
g11
sS'fernando belaunzaran mendez'
p600
g9
sS'eduardo porcayo rodriguez'
p601
g11
sS'cristina gabriela gardu\xc3\x91o casas'
p602
g31
sS'isabel margarita guerra villarreal'
p603
g6
sS'marcelino rivera hernandez'
p604
g9
sS'claudia xochitl munguia cisneros'
p605
g25
sS'martha robles ortiz'
p606
g4
sS'agustin carlos basave alanis'
p607
g2
sS'rolando tenorio torres'
p608
g11
sS'hirepan maya martinez'
p609
g37
sS'dulce maria mendez de la luz dauzon'
p610
g2
sS'maria magnolia vidales gonzalez'
p611
g2
sS'alan yair navarro pedraza'
p612
g11
sS'carlos barona morales'
p613
g19
sS'cecilia navarro alejandrez'
p614
g52
sS'jose juan clemente aguilar'
p615
g52
sS'aquiles reyes quiroz'
p616
g19
sS'rocio guzman suarez'
p617
g9
sS'jennifer orozco olvera'
p618
g52
sS'claudia gabriela diaz berzunza'
p619
g31
sS'dalia itzel bravo martinez'
p620
g9
sS'rosa maria selem bolivar'
p621
g11
sS'ashley villagomez escalante'
p622
g13
sS'gabriela cuevas barron'
p623
g37
sS'crystal vanessa rodriguez rodriguez'
p624
g2
sS'solange maria soler lanz'
p625
g6
sS'aldo fabian navarrete areizaga'
p626
g11
sS'gerardo rocha avila'
p627
g25
sS'yesica garc\xc3\x8da valdez'
p628
g11
sS'mario alejandro soto esquer'
p629
g4
sS'norma patricia serratos sanchez'
p630
g11
sS'feliciano flores anguiano'
p631
g4
sS'cristian eder solis pelaez'
p632
g52
sS'laura ivonne ruiz moreno'
p633
g16
sS'artemio heredia ruiz'
p634
g13
sS'javier salinas narvaez'
p635
g13
sS'raul ernesto sanchez barrales zavalza'
p636
g4
sS'felipe de jesus mu\xc3\x91oz kapamas'
p637
g19
sS'maria jose ramirez herrera'
p638
g25
sS'guadalupe dolores compa\xc3\x91 cobos'
p639
g52
sS'angel alberto barroso correa'
p640
g35
sS'wuilliam edmundo gonzalez paredes'
p641
g13
sS'erik celis flores'
p642
g11
sS'jessica saiden quiroz'
p643
g25
sS'luz elena peralta prado'
p644
g25
sS'emmanuel belisario de jes\xc3\x9as palacios dahmlow'
p645
g16
sS'karla amelia de la vega perez'
p646
g11
sS'gerardo vargas salgado'
p647
g6
sS'alba nidya marquez duarte'
p648
g52
sS'monserrat rodriguez rojano'
p649
g13
sS'jesus edmundo ravelo duarte'
p650
g9
sS'diego eduardo del bosque villarreal'
p651
g37
sS'jose martin lopez cisneros'
p652
g6
sS'gustavo parra sanchez'
p653
g16
sS'ernesto javier nemer alvarez'
p654
g19
sS'hilda itzel arce perez'
p655
g31
sS'jose cazares perez'
p656
g11
sS'maria magdalena ramirez de la rosa'
p657
g11
sS'francisco segoviano trujillo'
p658
g4
sS'maria guadalupe sanchez santiago'
p659
g9
sS'maria lourdes figueroa garcia'
p660
g11
sS'flor de maria olvera martinez'
p661
g11
sS'edgar alan barrera anders'
p662
g11
sS'norma leticia cantu hernandez'
p663
g25
sS'iliana guadalupe vadillo torres'
p664
g31
sS'cinthia mabel rosado correa'
p665
g11
sS'sandra montero beristain'
p666
g11
sS'lizet gamez ferrero'
p667
g11
sS'gerardo hiram barrios curti'
p668
g31
sS'jose de jesus garnica landin'
p669
g2
sS'luis antonio grajales colina'
p670
g6
sS'norma adela guel saldivar'
p671
g19
sS'belen florentina vazquez davalos'
p672
g13
sS'raul alfaro alor'
p673
g19
sS'maria elena preza martinez'
p674
g9
sS'maria de lourdes martinez arias'
p675
g9
sS'maribel sanchez tovar'
p676
g13
sS'hugo rafael ruiz lustre'
p677
g37
sS'victor parra meza'
p678
g11
sS'jose francisco coronato rodriguez'
p679
g2
sS'lourdes yolanda hernandez mu\xc3\x91oz'
p680
g31
sS'ricardo mejia berdeja'
p681
g9
sS'iran santiago manuel'
p682
g37
sS'blanca nidia inzunza angulo'
p683
g11
sS'taide pineda dominguez'
p684
g6
sS'maria isabel aguilar morales'
p685
g19
sS'jonhatan perez montiel'
p686
g2
sS'adriana davila fernandez'
p687
g6
sS'raymundo valdivia hernandez'
p688
g11
sS'rogelio rocha campos'
p689
g31
sS'francisco alfredo ortega gamboa'
p690
g11
sS'eva maria pimentel reyes'
p691
g19
sS'hilda alcira lam chang'
p692
g13
sS'gerardo alberto fierro garcia'
p693
g19
sS'victorino apodaca garcia'
p694
g6
sS'emmanuel alberto mojica linares'
p695
g6
sS'jorge romero herrera'
p696
g6
sS'florentino aron saenz cobos'
p697
g19
sS'ivonne casado cabrero'
p698
g2
sS'elizabeth catalan padilla'
p699
g9
sS'jose guadalupe ambrocio gachuz'
p700
g4
sS'silvia lorena villavicencio ayala'
p701
g4
sS'jorge ubaldo tapia meza'
p702
g52
sS'ma sara rocha medina'
p703
g16
sS'tito delfin cano'
p704
g9
sS'silvia rangel orona'
p705
g19
sS'humberto valdez richaud'
p706
g19
sS'arturo salinas flores'
p707
g11
sS'jose de los santos garcia garcia'
p708
g25
sS'liliana beatriz jimenez pellegrini'
p709
g6
sS'maria elizabeth garcia ocampo'
p710
g25
sS'luz sandra armengol jacinto'
p711
g19
sS'ariadne valeria garcia salas'
p712
g19
sS'marco antonio de la mora torreblanca'
p713
g25
sS'jose luis benavides gutierrez'
p714
g25
sS'julieta kristal vences valencia'
p715
g4
sS'raymundo polanco cordova'
p716
g25
sS'maria ines diaz hurtado'
p717
g25
sS'maricela de la paz cuevas'
p718
g11
sS'angel ramses santiago lopez'
p719
g31
sS'cristian manuel ramirez romero'
p720
g11
sS'juan jesus antonio manzur oudie'
p721
g35
sS'yolanda olga acu\xc3\x91a contreras'
p722
g6
sS'manuel rosendo pelayo'
p723
g25
sS'maria elena rojo almaraz'
p724
g4
sS'jose ramon cambero perez'
p725
g6
sS'oscar humberto osuna luviano'
p726
g6
sS'jorge omar velazquez ruiz'
p727
g16
sS'jose isabel quezada vazquez'
p728
g11
sS'alejandro garcia sanchez'
p729
g31
sS'jacqueline fernandez sanchez'
p730
g52
sS'liliana galvan nava'
p731
g25
sS'carmen lidia salazar guerra'
p732
g25
sS'arturo benavides castillo'
p733
g4
sS'erick godar ure\xc3\x91a frausto'
p734
g13
sS'juan jose limas villanueva'
p735
g52
sS'johan javier reynoso ochoa'
p736
g2
sS'claudia fabiola fierro ayala'
p737
g25
sS'martha guadalupe munguia berzunza'
p738
g11
sS'jesus javier rivera calderon'
p739
g25
sS'hiptzana garcia lopez'
p740
g19
sS'lorenia iveth valles sampedro'
p741
g4
sS'jesus humberto alfaro bedoya'
p742
g35
sS'obdulia cordova oyosa'
p743
g11
sS'teresita villalobos toledo'
p744
g13
sS'aldo ivan casas serrato'
p745
g19
sS'juan alberto marquez de anda'
p746
g19
sS'alejandro delgadillo rodriguez'
p747
g25
sS'christian hiram dunn fitch'
p748
g52
sS'fanny patricia garcia ayala'
p749
g31
sS'daniel andrade zurutuza'
p750
g31
sS'elvia veronica mayorga trinidad'
p751
g9
sS'sheila guadalupe villarreal campuzano'
p752
g11
sS'rosendo galindez martinez'
p753
g11
sS'manuel huerta martinez'
p754
g37
sS'yeimy dolores martinez pantaleon'
p755
g13
sS'apolonio villa rojas'
p756
g52
sS'rafael calderon zamarripa'
p757
g4
sS'carlos arturo cordova cobos'
p758
g35
sS'efrain martinez figueroa'
p759
g31
sS'renato tronco gomez'
p760
g9
sS'juan carlos villarreal salazar'
p761
g9
sS'ma. erendira suarez due\xc3\x91as'
p762
g11
sS'luis manuel gonzalez estrada'
p763
g19
sS'enrique sabas zarate mota'
p764
g2
sS'maria de los dolores padierna luna'
p765
g4
sS'ma eugenia leticia espinosa rivas'
p766
g9
sS'carlos sanchez barrios'
p767
g4
sS'veronica fragoso miranda'
p768
g25
sS'luis armando perez sanchez'
p769
g13
sS'jorge francisco javier vallarta trejo'
p770
g9
sS'lizeth amayrani guerra mendez'
p771
g37
sS'roberto sanchez campos'
p772
g16
sS'jesus maria hernandez reyna'
p773
g4
sS'juan francisco ramirez salcido'
p774
g9
sS'mariana gomez del campo gurza'
p775
g9
sS'claudia lopez rayon'
p776
g4
sS'daniel fernandez carrion'
p777
g25
sS'antonio valladolid rodriguez'
p778
g6
sS'jose renato alvarado galaviz'
p779
g13
sS'socorro irma andazola gomez'
p780
g4
sS'esteban de jesus acosta lagunes'
p781
g9
sS'antonio illescas marin'
p782
g25
sS'javier azael felix fagoaga'
p783
g52
sS'rubi pelagio ronces'
p784
g31
sS'cinthia guadalupe teniente mendoza'
p785
g13
sS'julio alfredo reyes hern\xc3\x81ndez'
p786
g6
sS'maurico gamez ibarra'
p787
g25
sS'hortencia sanchez galvan'
p788
g37
sS'jesus delgadillo mendoza'
p789
g11
sS'robinson armando balbuena de la cruz'
p790
g16
sS'laura alejandra ramirez ortiz'
p791
g9
sS'haley corina hernandez garivo'
p792
g13
sS'ricardo urzua rivera'
p793
g19
sS'fernando ba\xc3\x91os sanchez'
p794
g19
sS'massiel esthefania perez najera'
p795
g25
sS'jos\xc3\x89 enrique cecilio ram\xc3\x8drez berriel'
p796
g25
sS'maria alejandra torres novoa'
p797
g13
sS'andres trevi\xc3\x91o luna'
p798
g2
sS'fernando octavio garcia gomez'
p799
g25
sS'wenceslao santiago castro'
p800
g25
sS'paulina garcia espinosa'
p801
g25
sS'zoe alejandro robledo aburto'
p802
g4
sS'estela alvarez jimenez'
p803
g52
sS'abril yannette trujillo vazquez'
p804
g9
sS'maria de guadalupe arrubarrena garcia'
p805
g9
sS'alejandro alcaraz delgado'
p806
g11
sS'roberto vega herrera'
p807
g11
sS'raul tadeo nava'
p808
g13
sS'penelope campos gonzalez'
p809
g9
sS'juan jose sanchez duarte'
p810
g25
sS'socorro idalia murillo vega'
p811
g11
sS'claudia elena lastra mu\xc3\x91oz'
p812
g4
sS'luis tarcicio ramirez gutierrez'
p813
g4
sS'cuauhtemoc ochoa fernandez'
p814
g16
sS'mirtha iliana villalvazo amaya'
p815
g37
sS'marcela avila diaz'
p816
g25
sS'karla cecilia ares teran'
p817
g25
sS'alejandro viedma velazquez'
p818
g37
sS'mario cervantes gonzalez'
p819
g9
sS'sergio antonio balboa castro'
p820
g19
sS'jorge alcibiades garcia lara'
p821
g2
sS'ana maria luisa valdes aviles'
p822
g16
sS'hortencia enriquez ortega'
p823
g25
sS'arleth ramirez medina'
p824
g11
sS'maria elena marcial meraz'
p825
g52
sS'jose luis montalvo luna'
p826
g4
sS'benigno julian ramos hernandez'
p827
g11
sS'francisco javier ordo\xc3\x91ez dominguez'
p828
g11
sS'luis antonio macias trejo'
p829
g19
sS'erika patricia valencia avila'
p830
g9
sS'magdalena harayd ure\xc3\x91a perez'
p831
g2
sS'gustavo ernesto pantoja villarreal'
p832
g25
sS'emilio manzanilla tellez'
p833
g4
sS'ana lidia hernandez guzman'
p834
g2
sS'irma lilia garzon bernal'
p835
g9
sS'j reyes galindo pedraza'
p836
g19
sS'norma patricia lopez zu\xc3\x91iga'
p837
g19
sS'leticia trava herrera'
p838
g19
sS'alfonso roldan melo'
p839
g52
sS'maria teresa rodriguez lara'
p840
g52
sS'eduardo alan diaz mu\xc3\x91oz'
p841
g31
sS'jahir alejandro may ordo\xc3\x91ez'
p842
g13
sS'kathya maria flores puertos'
p843
g16
sS'juan diego martin garcia'
p844
g2
sS'jose gomez perez'
p845
g19
sS'liliana gonzalez gomez'
p846
g19
sS'baudelio perez juarez'
p847
g25
sS'fitzgerald de leon villard'
p848
g6
sS'ruben perez vera'
p849
g25
sS'eduardo ismael aguilar sierra'
p850
g6
sS'mayra xiomara trevizo guizar'
p851
g13
sS'ana paola lopez birlain'
p852
g9
sS'jorge alberto lazo zentella'
p853
g19
sS'brenda yazmin gonzalez bravo'
p854
g13
sS'alejandra junuen rodr\xc3\x8dguez v\xc3\x81zquez'
p855
g25
sS'saireth carolina perez gonzalez'
p856
g2
sS'nora fernanda tiznado madrid'
p857
g11
sS'miriam dominguez ronces'
p858
g31
sS'emmanuel padilla delgado'
p859
g19
sS'andres alvarado fernandez'
p860
g25
sS'adriana paulina teissier zavala'
p861
g4
sS'adriana gabriela medina ortiz'
p862
g9
sS'ricardo flores suarez'
p863
g6
sS'juan carlos cobix bustamante'
p864
g52
sS'lisandro aristides campos cordova'
p865
g19
sS'alejandra andrade becerril'
p866
g19
sS'lorena elizabeth rubio lopez'
p867
g25
sS'j. jesus guevara sandoval'
p868
g11
sS'victor adolfo mojica wences'
p869
g4
sS'elizabeth garcia nava'
p870
g11
sS'ma. eva paulina jimenez mendez'
p871
g52
sS'ruben ulises orozco magallanes'
p872
g13
sS'josefina salazar baez'
p873
g9
sS'julio cesar rodriguez gonzalez'
p874
g25
sS'juan carlos lopez elias'
p875
g52
sS'jose luis garcia duque'
p876
g4
sS'eladio alcantarilla techalotzi'
p877
g52
sS'guadalupe trejo mu\xc3\x91oz'
p878
g19
sS'maximiliano ruiz arias'
p879
g4
sS'armando contreras castillo'
p880
g37
sS'julio cesar orozco villanueva'
p881
g2
sS'jorge chavez munguia'
p882
g4
sS'gladys maria mortera cambranis'
p883
g19
sS'oscar perez  cordoba amador'
p884
g6
sS'bonifacio aguilar linda'
p885
g4
sS'iris janette haje contreras'
p886
g11
sS'daniel hernandez orozco'
p887
g19
sS'martha elisa gonzalez estrada'
p888
g9
sS'julio marquez mendoza'
p889
g11
sS'rene carreto trujillo'
p890
g11
sS'jose angel perez hernandez'
p891
g4
sS'saul josue gutierrez castillo'
p892
g11
sS'alis lizette alanis cervantes'
p893
g11
sS'juan pedro chaurand cortes'
p894
g25
sS'paulina gonzalez cuadros'
p895
g25
sS'alejandro eric cruz juarez'
p896
g35
sS'alfonso ramirez cuellar'
p897
g4
sS'roselia elvira lopez lopez'
p898
g25
sS'maria deyanira vega tapia'
p899
g13
sS'luis fernando salazar fern\xc3\x81ndez'
p900
g9
sS'maiella martha gabriela gomez maldonado'
p901
g9
sS'sergio romo casta\xc3\x91eda'
p902
g31
sS'jose crescencio gutierrez gonzalez'
p903
g16
sS'manuel guerrero sanchez'
p904
g19
sS'eden inzunza bernal'
p905
g11
sS'liliana crespo prado'
p906
g11
sS'yolanda guadalupe valdez almaguer'
p907
g6
sS'julian leyzaola perez'
p908
g31
sS'fany soriano ramos'
p909
g16
sS'jose sebastian hernandez avelino'
p910
g25
sS'elizabeth guzman garay'
p911
g13
sS'pablo jesus willis alcantar'
p912
g2
sS'maria de lourdes lara lopez'
p913
g19
sS'karen lizeth vazquez ramirez'
p914
g52
sS'erika herrera vargas'
p915
g6
sS'flor ivone morales miranda'
p916
g4
sS'elda candelaria ayuso achach'
p917
g16
sS'elba guadalupe lopez delgado'
p918
g2
sS'evelin torres salgado'
p919
g25
sS'cesar armando mejia lozano'
p920
g52
sS'rene juarez cisneros'
p921
g19
sS'guillermina hernandez hernandez'
p922
g19
sS'eduardo darien castro rosado'
p923
g52
sS'lizeth sanchez garcia'
p924
g52
sS'alejandro hernandez lopez'
p925
g52
sS'nerbi luz portugal sosa'
p926
g2
sS'pilar guerrero rubio'
p927
g25
sS'emilio suarez licona'
p928
g19
sS'luis castro obregon'
p929
g11
sS'hugo chahin maluly'
p930
g9
sS'alicia mu\xc3\x91oz constantino'
p931
g16
sS'delia marta villareal rodriguez'
p932
g19
sS'jose de jesus ramirez estrada'
p933
g11
sS'ruth nohemi espinoza perez'
p934
g9
sS'maria del carmen robles gonzalez'
p935
g4
sS'jorge luis rendon castro'
p936
g4
sS'elizabeth belem aguilar bravo'
p937
g19
sS'fernando morales martinez'
p938
g9
sS'jose ricardo gallardo cardona'
p939
g13
sS'amarante gonzalo gomez alarcon'
p940
g52
sS'paula angelica hernandez olmos'
p941
g19
sS'elizabeth isidro lim\xc3\x93n'
p942
g6
sS'evelyn chi\xc3\x91as lopez'
p943
g25
sS'alfredo graciano tinoco'
p944
g13
sS'javier gerardo gutierrez cavazos'
p945
g2
sS'ignacio amaya poblano'
p946
g11
sS'manuel jesus argaez cepeda'
p947
g9
sS'patricia ramirez casta\xc3\x91eda'
p948
g11
sS'gemma gracian atlatenco'
p949
g11
sS'lisbeth hernandez lecona'
p950
g19
sS'coral guadalupe aguilar sanchez'
p951
g25
sS'horacio duarte olivares'
p952
g37
sS'perla elisa gutierrez armendariz'
p953
g11
sS'tisbe scanda contreras herrera'
p954
g25
sS'ver\xc3\x93nica tego ort\xc3\x8dz'
p955
g16
sS'jesus arturo del bosque de la pe\xc3\x91a'
p956
g4
sS'adriana fuentes tellez'
p957
g19
sS'monica davila gomez'
p958
g2
sS'maria del carmen cruz paredes'
p959
g9
sS'erik guillermo rodriguez garza'
p960
g25
sS'angel benjamin robles montoya'
p961
g4
sS'liliana torres garc\xc3\x89s'
p962
g25
sS'sergio gil rullan'
p963
g9
sS'claudia de los angeles trujillo rincon'
p964
g2
sS'alma fabiola guerrero arellano'
p965
g11
sS'juan esteban mis uc'
p966
g52
sS'jose carlos rivera alcala'
p967
g6
sS'miguel angel gonzalez leon'
p968
g52
sS'ruben ignacio moreira valdez'
p969
g19
sS'marco ivan olivares cantu'
p970
g13
sS'jorge antonio cordova acosta'
p971
g11
sS'paloma rachel aguilar correa'
p972
g4
sS'sergio terron soto'
p973
g52
sS'jose miguel sandoval perez'
p974
g11
sS'humberto agustin macias romero'
p975
g9
sS'mercedes calderon garcia'
p976
g4
sS'juan jose rodriguez prats'
p977
g6
sS'gonzalo hernandez molina'
p978
g2
sS'maria del rocio aguilar nava'
p979
g9
sS'yolanda najera segura'
p980
g31
sS'pablo ismael ayala loria'
p981
g6
sS'tatiana clouthier carrillo'
p982
g37
sS'sandra luz torres vazquez'
p983
g25
sS'fabiola raquel guadalupe loya hernandez'
p984
g9
sS'astrid alejandra ortega vazquez'
p985
g4
sS'carlos matuk lopez de nava'
p986
g19
sS'eduwiges baena cortes'
p987
g52
sS'alberto lara noriega'
p988
g2
sS'jose heriberto cantu deandar'
p989
g4
sS'jose del carmen gomez quej'
p990
g6
sS'silvia ch\xc3\x81vez \xc3\x81vila'
p991
g11
sS'edelmiro santiago santos diaz'
p992
g37
sS'alejandro cabrera correa'
p993
g25
sS'berlin rodriguez soria'
p994
g31
sS'jose alejandro lopez sanchez'
p995
g9
sS'ana sobeida torres sabori'
p996
g25
sS'nelly maceda carrera'
p997
g4
sS'judith dominguez plaza'
p998
g6
sS'roberto luevano ruiz'
p999
g16
sS'marco antonio gonzalez reyes'
p1000
g37
sS'luis walton aburto'
p1001
g2
sS'leonel luna estrada'
p1002
g13
sS'monica melendez ramirez'
p1003
g19
sS'eunice arias arias'
p1004
g4
sS'jose de la luz sosa salinas'
p1005
g4
sS'arturo zapata rangel'
p1006
g11
sS'arcadio sabido mendez'
p1007
g13
sS'maria martha palencia nu\xc3\x91ez'
p1008
g2
sS'flor yocelin zamorano villegas'
p1009
g25
sS'luis fernando castellanos cal y mayor'
p1010
g25
sS'maria esther orozco arias'
p1011
g52
sS'ricardo francisco exsome zapata'
p1012
g4
sS'mario alberto romero figueroa'
p1013
g52
sS'jorge estrada saucedo'
p1014
g25
sS'juan manuel nieto marquez'
p1015
g25
sS'claudia alejandra ramirez mu\xc3\x91oz'
p1016
g25
sS'jose ignacio alberto rubio chavez'
p1017
g11
sS'miroslava sanchez galvan'
p1018
g37
sS'jose rodrigo fabian lopez portillo cruz'
p1019
g25
sS'ruth salinas reyes'
p1020
g2
sS'rosalva llanes rivera'
p1021
g19
sS'maria eugenia medina miyazaki'
p1022
g16
sS'edith cuahutencos zempoaltecatl'
p1023
g52
sS'maricruz roblero gordillo'
p1024
g4
sS'adriana guadalupe sanchez martinez'
p1025
g9
sS'mario alberto rincon gonzalez'
p1026
g9
sS'carlos ricardo olvera avila'
p1027
g4
sS'gabriela oyuki santiago gutierrez'
p1028
g25
sS'ana cristina irizar avedoy'
p1029
g25
sS'mario alberto ramos tamez'
p1030
g9
sS'usia correa gonzalez'
p1031
g25
sS'sergio flores luna'
p1032
g19
sS'leslie yamileth baez cece\xc3\x91a'
p1033
g19
sS'jhony adalberto bernardo gomez'
p1034
g13
sS'alix berenice orozco cordova'
p1035
g4
sS'jorge emilio gonzalez martinez'
p1036
g25
sS'lyndiana elizabeth bugar\xc3\x8dn cortes'
p1037
g16
sS'antonio valdez wendo'
p1038
g4
sS'antonio tzilacatzin carre\xc3\x91o sosa'
p1039
g2
sS'roman alberto estrada martinez'
p1040
g25
sS'rubit villarreal puentes'
p1041
g52
sS'ivan reynaldo manjarrez meneses'
p1042
g6
sS'lourdes guadalupe almaraz herrera'
p1043
g19
sS'esther martha chavarria'
p1044
g9
sS'sergio tamai garcia'
p1045
g52
sS'luis alberto carballo gutierrez'
p1046
g16
sS'maritza mallely jimenez perez'
p1047
g19
sS'eduardo sobrino sierra'
p1048
g13
sS'mara iliana cruz pastrana'
p1049
g13
sS'olegaria carrazco macias'
p1050
g4
sS'eugenio camacho uriostegui'
p1051
g31
sS'eric eber villanueva mukul'
p1052
g13
sS'karla hernandez valencia'
p1053
g31
sS'patricia dolores delgadillo reynoso'
p1054
g13
sS'dalia jazmin gutierrez de la rosa'
p1055
g19
sS'clementina marta dekker gomez'
p1056
g4
sS'jorge alejandro salum del palacio'
p1057
g9
sS'sylvia yvonne reyes gonzalez'
p1058
g16
sS'rosa elba guardado mendoza'
p1059
g52
sS'aldo molina caballero'
p1060
g11
sS'silvia esther perez ceballos'
p1061
g19
sS'ivonne risso lopez'
p1062
g19
sS'beatriz rojas mart\xc3\x8dnez'
p1063
g4
sS'arturo aldama mascare\xc3\x91as'
p1064
g19
sS'pedro avila nevarez'
p1065
g19
sS'pablo hector ojeda cardenas'
p1066
g31
sS'gerardo javier garcia due\xc3\x91as'
p1067
g11
sS'eda maria palacios marquez'
p1068
g9
sS'joana herrera soberanis'
p1069
g31
sS'rosario del carmen de la vega mayagoitia'
p1070
g19
sS'martha orta rodriguez'
p1071
g16
sS'juan pablo santos rodriguez'
p1072
g11
sS'yahaps vladimir perez nu\xc3\x91ez'
p1073
g11
sS'jose ricardo perales reyes'
p1074
g13
sS'juan carlos pinto rodriguez'
p1075
g19
sS'maria del consuelo rafaela rodriguez de alba'
p1076
g19
sS'jose carlos lozano rivera rio'
p1077
g19
sS'karime iyari sevilla alvarez'
p1078
g11
sS'maria del pilar corona mu\xc3\x91oz'
p1079
g6
sS'hugo parra silva'
p1080
g11
sS'sheila rubi flores tenorio'
p1081
g19
sS'marisol santiago cardenas'
p1082
g52
sS'elvia isojo velasquez'
p1083
g2
sS'jose alfredo mireles moreno'
p1084
g25
sS'rosalia rangel lopez'
p1085
g6
sS'juan jose canul perez'
p1086
g16
sS'jose antonio rojo garcia de alba'
p1087
g19
sS'patricia lucia torres rosales'
p1088
g13
sS'ricardo maga\xc3\x91a mosqueda'
p1089
g9
sS'maria del rosario estrada rodriguez'
p1090
g31
sS'maria alicia barradas espinosa'
p1091
g25
sS'diana patricia gonzalez sanchez'
p1092
g25
sS'sofia bautista zambrano'
p1093
g19
sS'omar abisaid sarabia esparza'
p1094
g13
sS'karina tecpa tecpa'
p1095
g25
sS'jose de la cruz hernandez'
p1096
g11
sS'maryanela clotilde monroy flores'
p1097
g25
sS'yesenia martinez sanchez'
p1098
g6
sS'elvis maria mart\xc3\x8dnez benitez'
p1099
g6
sS'maria fernanda gutierrez salcedo'
p1100
g25
sS'jorge arturo arguelles victorero'
p1101
g4
sS'ruben boyzo solis'
p1102
g13
sS'maria guadalupe guerrero saucedo'
p1103
g11
sS'edgardo ramirez herrera'
p1104
g11
sS'juan navarro rodriguez'
p1105
g19
sS'dionicia vazquez garcia'
p1106
g4
sS'esther herrera gonzalez'
p1107
g13
sS'valeria araceli valdes castillo'
p1108
g25
sS'alethia loredo garcia'
p1109
g19
sS'juanita berenice moyron rutiaga'
p1110
g52
sS'teresa de jesus pinto y canul'
p1111
g11
sS'lilia christfield lugo'
p1112
g19
sS'sergio miguel martin castellanos'
p1113
g19
sS'maria luisa cortes vargas'
p1114
g11
sS'karla victoria de leon espindola'
p1115
g25
sS'rafael armando arellanes caballero'
p1116
g52
sS'humberto roblero fernandez'
p1117
g16
sS'bruno diaz ruiz'
p1118
g2
sS'sofia candelaria lopez saucedo'
p1119
g6
sS'elia nancy hernandez anaya'
p1120
g11
sS'maximino alejandro candelaria'
p1121
g37
sS'laura patricia fernandez hidalgo'
p1122
g6
sS'miguel acundo gonzalez'
p1123
g4
sS'david eugenio elizondo cantu'
p1124
g35
sS'francisco ceballos capistran'
p1125
g2
sS'rebeca hidalgo monta\xc3\x91ez'
p1126
g13
sS'ana karen rodriguez juarez'
p1127
g11
sS'marcelino martinez dominguez'
p1128
g52
sS'angelica miranda molina'
p1129
g9
sS'juan carlos reyes pati\xc3\x91o'
p1130
g11
sS'hildelisa gonzalez morales'
p1131
g4
sS'jaime alonso aguilera garcia'
p1132
g6
sS'mariana granados martinez'
p1133
g11
sS'xochitl livier reynoso zamora'
p1134
g25
sS'reyna isela herrera lastra'
p1135
g2
sS'daisy berenice esparza nava'
p1136
g11
sS'olivia franco barragan'
p1137
g6
sS'olga patricia sosa ruiz'
p1138
g31
sS'laura ibeth arredondo velazquez'
p1139
g16
sS'samuel kury ramos'
p1140
g2
sS'fernando luis manzanilla prieto'
p1141
g4
sS'yamilet cruz escobar'
p1142
g19
sS'amada inocencia tapia cielo'
p1143
g11
sS'juan enrique rivera reyes'
p1144
g19
sS'ramon chavez castorena'
p1145
g25
sS'ignacio benjamin campos equihua'
p1146
g4
sS'moises jimenez sanchez'
p1147
g52
sS'porfirio zamora lemus'
p1148
g52
sS'armando tonatiuh gonzalez case'
p1149
g19
sS'amelia marin mendez'
p1150
g6
sS'luis alberto luna espinoza'
p1151
g9
sS'tomas basaldu gutierrez'
p1152
g9
sS'dulce maria cervera cetina'
p1153
g16
sS'juanita guerra mena'
p1154
g4
sS'juan francisco espinoza eguia'
p1155
g19
sS'c\xc3\x89sar agust\xc3\x8dn hern\xc3\x81ndez perez'
p1156
g4
sS'moises ignacio mier velazco'
p1157
g37
sS'maria  del rosario guzman aviles'
p1158
g6
sS'alejandro enrique bravo del carpio'
p1159
g16
sS'mar\xc3\x8da teresa rebeca rosa mora r\xc3\x8dos'
p1160
g4
sS'victor hugo valadez'
p1161
g52
sS'victor manuel cerezo resendiz'
p1162
g2
sS'karime annahi jasso pineda'
p1163
g13
sS'maria esther aguilar ku'
p1164
g52
sS'juan martin espinoza cardenas'
p1165
g9
sS'ivan terashima zamora'
p1166
g19
sS'karla cecilia navarro bahena'
p1167
g19
sS'fabiola servin sanchez'
p1168
g52
sS'jes\xc3\x9as flores romero'
p1169
g19
sS'maria paz mendoza sanchez'
p1170
g16
sS'roberto gomez campos'
p1171
g19
sS'janet graciela gonzalez tostado'
p1172
g19
sS'gabriel lopez hernandez'
p1173
g52
sS'jan carlo robles flores'
p1174
g19
sS'maria chavez perez'
p1175
g37
sS'arturo esquitin ortiz'
p1176
g9
sS'teresa lopez zavala'
p1177
g25
sS'ana maria rodriguez ruiz'
p1178
g4
sS'ma yolanda olguin de leon'
p1179
g2
sS'laura belen serrano rivera'
p1180
g19
sS'fernando haro salinas'
p1181
g25
sS'araceli ruiz martinez'
p1182
g9
sS'kenia jessmin sarmiento de los santos'
p1183
g19
sS'francisco daniel velazquez cortina'
p1184
g52
sS'ricardo gamez casal'
p1185
g11
sS'jose antonio flores fernandez'
p1186
g9
sS'eric ricardo borboa becerra'
p1187
g6
sS'nancy rios soto'
p1188
g19
sS'luz berthita perez calderon'
p1189
g25
sS'julio cesar osorio perez'
p1190
g35
sS'ana karen nathaly gutierrez lopez'
p1191
g25
sS'cynthia benavides chavez'
p1192
g16
sS'francisco amadeo espinosa ramos'
p1193
g52
sS'lenin nelson campos cordova'
p1194
g19
sS'carmen julieta macias rabago'
p1195
g13
sS'carmen ruby lozano vazquez'
p1196
g13
sS'marco antonio andrade zavala'
p1197
g37
sS'aleida alavez ruiz'
p1198
g4
sS'mariana zu\xc3\x91iga romero'
p1199
g6
sS'antonia natividad diaz jimenez'
p1200
g6
sS'david sa\xc3\x9al guakil'
p1201
g2
sS'olga valentina trevi\xc3\x91o hinojosa'
p1202
g35
sS'ma. teresa contreras cardenas'
p1203
g11
sS'cielo kelly uriarte rivera'
p1204
g19
sS'rafael flores torres'
p1205
g19
sS'david noe delgado medina'
p1206
g2
sS'evelia hern\xc3\x81ndez ju\xc3\x81rez'
p1207
g4
sS'marina manuela calderon guillen'
p1208
g2
sS'fernando torres graciano'
p1209
g6
sS'pedro david ignacio ruiz'
p1210
g11
sS'wendy gonzalez urrutia'
p1211
g9
sS'jacinto sanchez caro'
p1212
g9
sS'maria guadalupe salazar hernandez'
p1213
g16
sS'sonia rocha acosta'
p1214
g9
sS'jesus agustin rovirosa gomez'
p1215
g19
sS'michelle alexander espinosa salazar'
p1216
g11
sS'marisol jimenez cervantes'
p1217
g2
sS'maria del carmen jimenez leon'
p1218
g2
sS'ana ruth garcia grande'
p1219
g4
sS'elba cristina ruiz almanza'
p1220
g2
sS'cristina elena saenz quezada'
p1221
g11
sS'nora veronica orozco chavez'
p1222
g9
sS'luis alberto velazquez perez'
p1223
g6
sS'jose luis cruz maya'
p1224
g37
sS'ciceron alejandro mancilla gonzalez'
p1225
g9
sS'ricardo antonio boyzo pe\xc3\x91aloza'
p1226
g13
sS'maria del carmen avalos uranga'
p1227
g6
sS'anto adan marte tlaloc tovar garcia'
p1228
g19
sS'hector manuel vargas zavala'
p1229
g2
sS'leslie aranzza corona garcia'
p1230
g13
sS'luis manuel rodriguez olvera'
p1231
g11
sS'gisela palomares colmenero'
p1232
g25
sS'alejandra padilla rodriguez'
p1233
g31
sS'pedro vazquez gonzalez'
p1234
g52
sS'tania lozano sanchez'
p1235
g6
sS'felicitas martinez almazan'
p1236
g11
sS'siddharta alexander sanchez macias'
p1237
g11
sS'miguel augusto navejas mart\xc3\x8dnez'
p1238
g11
sS'miguel osbaldo jimenez santamaria'
p1239
g2
sS'clara ibarra cervantes'
p1240
g13
sS'ana karina rojo pimentel'
p1241
g4
sS'julio espin navarrete'
p1242
g13
sS'edilberto aguilar martinez'
p1243
g52
sS'eulalio juan rios fararoni'
p1244
g4
sS'juana irene villegas sanchez'
p1245
g25
sS'eulalia maria bermudez gomez'
p1246
g13
sS'lizzet angelina torres perez'
p1247
g11
sS'norma esparza herrera'
p1248
g19
sS'arturo zamora jimenez'
p1249
g19
sS'fausto manuel zamorano esparza'
p1250
g19
sS'jesus ignacio maga\xc3\x91a torres'
p1251
g25
sS'mariana dunyaska garcia rojas'
p1252
g9
sS'ma. del carmen perez rosas'
p1253
g9
sS'rosa isela de la rocha nevarez'
p1254
g9
sS'paulo jenaro diez gargari'
p1255
g6
sS'daniel isai bautista reinhardt'
p1256
g2
sS'giovanni santiago moreno'
p1257
g13
sS'karla victoria martinez gallegos'
p1258
g19
sS'jessica vanesa fonseca hernandez'
p1259
g25
sS'claudia angelica dominguez vazquez'
p1260
g4
sS'ileana jannete herrera perez'
p1261
g9
sS'carla nallely alvarez kuyoc'
p1262
g52
sS'atalia nathaly castro godinez'
p1263
g11
sS'laura esther de la garza de la fuente'
p1264
g13
sS'francisco espinosa perez'
p1265
g31
sS'beatriz manrique guevara'
p1266
g25
sS'ana karen cid hernandez'
p1267
g25
sS'yunuen marisol hernandez alvarez'
p1268
g2
sS'ernesto ruffo appel'
p1269
g6
sS'juana alicia sanchez jimenez'
p1270
g9
sS'luis toussaint elosua'
p1271
g19
sS'venustiano perez sanchez'
p1272
g9
sS'sergio soto vallejo'
p1273
g25
sS'miguel felipe mery ayup'
p1274
g16
sS'nayely annahi de la torre mercado'
p1275
g2
sS'juan daniel perez munguia'
p1276
g25
sS'leandro lastre cruz'
p1277
g11
sS'guadalupe belem olvera mendoza'
p1278
g25
sS'emeteria claudia martinez aguilar'
p1279
g37
sS'socorro bahena jimenez'
p1280
g37
sS'maria liduvina sandoval mendoza'
p1281
g6
sS'felipe fernando macias olvera'
p1282
g9
sS'rubnni johanna trujillo ponce'
p1283
g37
sS'lourdes apolonio comunidad'
p1284
g13
sS'shantal viridiana rosales chavez'
p1285
g25
sS'porfirio alejandro mu\xc3\x91oz ledo y lazo de la vega'
p1286
g37
sS'jose manuel siu vargas'
p1287
g6
sS'maria concepcion cervantes marquez'
p1288
g31
sS'julio antonio valencia macfarland'
p1289
g25
sS'luisa yessica de lamadrid tellez'
p1290
g2
sS'hugo alonso leiva rodriguez'
p1291
g2
sS'gloria miclos ramirez'
p1292
g11
sS'angel alejandro mohar salas'
p1293
g19
sS'silvia jaime martinez'
p1294
g37
sS'jose antonio franco gonzalez'
p1295
g4
sS'gregorio sanchez martinez'
p1296
g31
sS'anel lizet sanchez gonzalez'
p1297
g31
sS'jose torres hernandez'
p1298
g19
sS'alfredo torres zambrano'
p1299
g9
sS'jany robles ortiz'
p1300
g19
sS'daniel gutierrez gutierrez'
p1301
g4
sS'mateo marcial tadeo'
p1302
g2
sS'blanca aguila lima'
p1303
g16
sS'dulce polett bastida morales'
p1304
g9
sS'jorge alberto chanona echeverria'
p1305
g16
sS'jose salvador rosas quintanilla'
p1306
g9
sS'aldo bruno guerrero vazquez'
p1307
g9
sS'bernardo bustillos moncayo'
p1308
g13
sS'luz maria canul espadas'
p1309
g13
sS'norma luz de la concha galvez'
p1310
g11
sS'jesus gustavo aguilar medina'
p1311
g2
sS'marx trejo trejo'
p1312
g25
sS'yesica judith rodriguez ramirez'
p1313
g11
sS'maria reyes acosta acosta'
p1314
g25
sS'monica del carmen escobar gonzalez'
p1315
g9
sS'valentin arrieta san roman'
p1316
g19
sS'jesus de los angeles pool moo'
p1317
g4
sS'juan pablo s\xc3\x81nchez rodriguez'
p1318
g4
sS'victor hugo ortiz trejo'
p1319
g2
sS'pedro mario zenteno santaella'
p1320
g4
sS'brenda ku martinez'
p1321
g25
sS'esteban barajas barajas'
p1322
g4
sS'neil martin perez campos'
p1323
g19
sS'flor jazmin carrillo garcia'
p1324
g19
sS'monica almeida lopez'
p1325
g9
sS'oswaldo rios durazo'
p1326
g6
sS'daniel rios rios'
p1327
g19
sS'c\xc3\x89sar guti\xc3\x89rrez rom\xc3\x81n'
p1328
g11
sS'maria luisa veloz silva'
p1329
g37
sS'edith martinez cruz'
p1330
g52
sS'rosalinda dominguez flores'
p1331
g4
sS'carol antonio altamirano'
p1332
g4
sS'adriana aguilar vazquez'
p1333
g37
sS'sughey adriana torres rodriguez'
p1334
g19
sS'celestino salcedo flores'
p1335
g19
sS'lilia villafuerte zavala'
p1336
g9
sS'elizabeth perez rodriguez'
p1337
g6
sS'sonia evangelina damian ortiz'
p1338
g25
sS'veronica cervantes ramirez'
p1339
g25
sS'juan miguel angel gongora sohle'
p1340
g52
sS'jesus casarrubias pile\xc3\x91o'
p1341
g6
sS'mefi ruiz jimenez'
p1342
g52
sS'sergio mayer breton'
p1343
g4
sS'esther evelia gomez juarez'
p1344
g19
sS'marco antonio mendoza bustamante'
p1345
g19
sS'victor manuel oliva rodriguez'
p1346
g11
sS'diana palmer abreu'
p1347
g6
sS'bertha lucia encinas gonzalez'
p1348
g2
sS'ana guadalupe perez espinoza'
p1349
g6
sS'maria guadalupe edith casta\xc3\x91eda ortiz'
p1350
g37
sS'luisa maria de guadalupe calderon hinojosa'
p1351
g35
sS'rosalba rodriguez galvan'
p1352
g13
sS'juan salas luna'
p1353
g25
sS'maricela uribe esquivel'
p1354
g9
sS'marlene escamilla espejo'
p1355
g11
sS'miguel alonso olamendi'
p1356
g13
sS'rocio de la luz morales chavez'
p1357
g11
sS'tyara schleske de ari\xc3\x91o'
p1358
g25
sS'yolanda zu\xc3\x91iga medina'
p1359
g52
sS'cindy verennice ruiz rodriguez'
p1360
g11
sS'jose guzman lopez gonzalez'
p1361
g13
sS'fernando enrique ascencio lango'
p1362
g6
sS'indira vizcaino silva'
p1363
g31
sS'joel abraham blas ramos'
p1364
g19
sS'celsa ximena aceves sanchez'
p1365
g2
sS'edgar emanuel flores palacio'
p1366
g25
sS'agustin garcia rubio'
p1367
g37
sS'perla mar\xc3\x8da valles cota'
p1368
g25
sS'aurora mendez felix'
p1369
g25
sS'erik gonzalez juarez'
p1370
g11
sS'mauricio alonso lopez sepulveda'
p1371
g19
sS'marcos fabian carrillo'
p1372
g6
sS'wilfrido lazaro medina'
p1373
g19
sS'carlos gamaliel cisneros ruiz'
p1374
g11
sS'ma. guadalupe ramirez monroy'
p1375
g9
sS'iris paola gomez de la cruz'
p1376
g35
sS'ivan arturo perez negron ruiz'
p1377
g4
sS'rocio lopez alavez'
p1378
g13
sS'karla torres cervantes'
p1379
g19
sS'susana olivia reyes olivares'
p1380
g2
sS'claudia elsa lopez sanz'
p1381
g13
sS'adriana flores arroyo'
p1382
g25
sS'carlos alberto manzo rodriguez'
p1383
g35
sS'victor manuel kidnie de la cruz'
p1384
g19
sS'carmen erendira castellanos pallares'
p1385
g9
sS'otto alberto valles baca'
p1386
g25
sS'sanjuanita araceli mireles ni\xc3\x91o'
p1387
g11
sS'dulce margarita arellano gourcy'
p1388
g4
sS'gustavo flores lopez'
p1389
g6
sS'ma carmen rivera hernandez'
p1390
g2
sS'alfredo villegas arreola'
p1391
g19
sS'javier manuel trevi\xc3\x91o hernandez'
p1392
g19
sS'luis fernando torres martin'
p1393
g4
sS'nadia contreras hernandez'
p1394
g6
sS'lorenzo mario baez lara'
p1395
g2
sS'marisol gonzalez sierra'
p1396
g25
sS'sergio antonio aguayo burgos'
p1397
g6
sS'lizette ivon gonzalez martinez'
p1398
g19
sS'reyna enith dominguez wong'
p1399
g4
sS'jose ernesto gil elorduy'
p1400
g19
sS'alicia escoto sierra'
p1401
g11
sS'pedro bernabe tapia tovar'
p1402
g52
sS'ramon alejandro perez madrigal'
p1403
g11
sS'maria del pilar lozano mac donald'
p1404
g2
sS'samuel aguirre ochoa'
p1405
g19
sS'karina reyes guillen'
p1406
g19
sS'bernarda reyes hernandez'
p1407
g16
sS'edith marisol mercado torres'
p1408
g37
sS'irambel corral sanchez'
p1409
g11
sS'ricardo espinoza chavero'
p1410
g19
sS'elba lorena torres diaz'
p1411
g4
sS'jesus sarabia contreras'
p1412
g52
sS'leslie staines formoso'
p1413
g9
sS'soraya eriza pineda'
p1414
g16
sS'husseim sauceda garcia'
p1415
g13
sS'iris canseco gonzalez'
p1416
g31
sS'getsemani hernandez velez'
p1417
g25
sS'guillermo del valle reyes'
p1418
g16
sS'addair miranda mendoza'
p1419
g25
sS'ricardo alfonzo rivero salazar'
p1420
g25
sS'carmina yadira regalado mardue\xc3\x91o'
p1421
g37
sS'lucia yesenia valdez hernandez'
p1422
g19
sS'guillermo antonio mu\xc3\x91oz garcia'
p1423
g25
sS'azucena salazar pineda'
p1424
g9
sS'francisco antonio herrera oca\xc3\x91a'
p1425
g19
sS'jaime ricardo kirchner plascencia'
p1426
g19
sS'marcela guillermina velasco gonzalez'
p1427
g19
sS'hector guillermo de jesus jimenez y meneses'
p1428
g4
sS'jose odilon ruiz sanchez'
p1429
g16
sS'cinthia nereida velazquez neri'
p1430
g11
sS'ma. del rosario torres noriega'
p1431
g9
sS'erika maria angelica hernandez morales'
p1432
g25
sS'ricardo eduardo lavin salazar'
p1433
g2
sS'claudia ines rivero flores'
p1434
g6
sS'maria de jesus olvera mejia'
p1435
g19
sS'miguel pavel jarero velazquez'
p1436
g4
sS'ana rosa pineda guel'
p1437
g13
sS'irma penelope lopez rangel'
p1438
g25
sS'janet melanie murillo chavez'
p1439
g9
sS'ricardo gomez escalante'
p1440
g4
sS'ariosto raul castillejos acu\xc3\x91a'
p1441
g16
sS'zaira ochoa valdivia'
p1442
g37
sS'danna paulina aguilar samos'
p1443
g25
sS'luis ricardo sanchez martir'
p1444
g11
sS'antonio roman valdez'
p1445
g25
sS'liliana jurado terrazas'
p1446
g13
sS'ariana rubi alvarez limas'
p1447
g11
sS'luis enrique gomez alvarez'
p1448
g13
sS'edith garcia rosales'
p1449
g37
sS'antonia chabez rodriguez'
p1450
g52
sS'salvador arellano guzman'
p1451
g19
sS'antonio jose lojero vazquez'
p1452
g25
sS'xavier azuara zu\xc3\x91iga'
p1453
g6
sS'jesus guzman aviles'
p1454
g9
sS'jalil abraham bagdadi perez'
p1455
g13
sS'nicolas maestro landeros'
p1456
g19
sS'victoria anahi olguin rojas'
p1457
g19
sS'luis carlos samano valdes'
p1458
g13
sS'carlos alberto morales vazquez'
p1459
g6
sS'martha hortencia garay cadena'
p1460
g16
sS'gisela perez cordero'
p1461
g11
sS'maria josefina chivacuan del olmo'
p1462
g25
sS'alberto valencia ba\xc3\x91uelos'
p1463
g35
sS'beatriz alarcon adame'
p1464
g16
sS'juan manuel vega rayet'
p1465
g19
sS'juan campos gonzalez'
p1466
g52
sS'jacquelina martinez juarez'
p1467
g6
sS'maria estela robles vasquez'
p1468
g11
sS'blanca lilia ramirez hernandez'
p1469
g52
sS'miguel angel badiola monta\xc3\x91o'
p1470
g19
sS'mariana rodriguez mier y teran'
p1471
g19
sS'crescenciano hernandez espinosa'
p1472
g52
sS'nancy chavez mu\xc3\x91oz'
p1473
g31
sS'yolanda rendon hernandez'
p1474
g13
sS'francisco ramon vassallo dominguez'
p1475
g19
sS'francisco navarrete conde'
p1476
g13
sS'carlos alberto valenzuela gonzalez'
p1477
g6
sS'abigail cruz gonzalez'
p1478
g13
sS'manuel gomez ventura'
p1479
g37
sS'fernando martinez alonso'
p1480
g6
sS'j. de jesus hermelindo martinez vazquez'
p1481
g37
sS'gabriela gonzalez navarro'
p1482
g16
sS'maria candelaria salinas cantu'
p1483
g11
sS'madeleine bonnafoux alcaraz'
p1484
g6
sS'jos\xc3\x89 luis l\xc3\x93pez couti\xc3\x91o'
p1485
g16
sS'ma. socorro monjaraz solorzano'
p1486
g25
sS'ruth aburto montalvo'
p1487
g11
sS'alejandro lopez morales'
p1488
g25
sS'jose luis romero calzada'
p1489
g16
sS'jorge antonio illescas delgado'
p1490
g16
sS'ezaid alejandro ramirez carmona'
p1491
g11
sS'francisca gabriela garcia zapata'
p1492
g31
sS'claudia gabriela estrada de la cruz'
p1493
g4
sS'cuauhtli fernando badillo moreno'
p1494
g37
sS'maria esther mejia cruz'
p1495
g4
sS'edson jesus andrade reyes'
p1496
g25
sS'maricarmen garcia sanchez'
p1497
g9
sS'evelyn maria perez amezquita'
p1498
g52
sS'carla jimena morell islas'
p1499
g16
sS'jose jaime montes salas'
p1500
g4
sS'araceli ocampo manzanares'
p1501
g4
sS'miguel angel monraz ibarra'
p1502
g6
sS'ma. elisa torres garcia'
p1503
g52
sS'luz del carmen baxzi garcia'
p1504
g25
sS'leonardo monta\xc3\x91ez castro'
p1505
g9
sS'daniel ramirez hernandez'
p1506
g11
sS'dinorah wendy barrera alvarez'
p1507
g25
sS'veronica robles diaz'
p1508
g52
sS'maria cristina ni\xc3\x91o de rivera burgue\xc3\x91o'
p1509
g19
sS'margarito israel cuevas perez'
p1510
g11
sS'gloria cristian campos hernandez'
p1511
g2
sS'carlos javier lamarque cano'
p1512
g4
sS'sylvia violeta garfias cedillo'
p1513
g6
sS'celita viviana caceres gonzalez'
p1514
g2
sS'alberto vargas rios'
p1515
g11
sS'itzia yurixih perez vega'
p1516
g19
sS'hector alfonso de la garza villareal'
p1517
g25
sS'ana laura cede\xc3\x91o huape'
p1518
g25
sS'vania maria kelleher hernandez'
p1519
g19
sS'severo bautista osorio'
p1520
g11
sS'martin ramos castellanos'
p1521
g13
sS'julio erasto rojas alabat'
p1522
g9
sS'elsye nallely hernandez castellanos'
p1523
g31
sS'antonio emmanuel garcia elizondo'
p1524
g13
sS'linda rubi martinez diaz'
p1525
g19
sS'fanny viviana frausto davila'
p1526
g2
sS'juan gerardo flores ramirez'
p1527
g25
sS'jaime alberto yerena salazar'
p1528
g4
sS'ma de los angeles salomon galeana'
p1529
g16
sS'diego alberto aviles quintanar'
p1530
g13
sS'daniela gonzalez rodriguez'
p1531
g35
sS'david ricardo nava martinez'
p1532
g9
sS'sandra maria antonieta duarte sanchez'
p1533
g11
sS'david perez calleja'
p1534
g19
sS'samuel herrera chavez'
p1535
g4
sS'ana elena miranda saldivar'
p1536
g13
sS'nancy yuridia toriz quezada'
p1537
g31
sS'frinne azuara yarzabal'
p1538
g19
sS'gabriela berenice oliva martinez'
p1539
g19
sS'maria isabel sanchez holguin'
p1540
g16
sS'veronica salazar vasquez'
p1541
g9
sS'humberto alejandro rodriguez garcia'
p1542
g31
sS'jose alejandro jimenez montes'
p1543
g11
sS'rosa maria lozano aldrete'
p1544
g9
sS'johanna esthela chavez jacinto'
p1545
g19
sS'lourdes del carmen ramos pati\xc3\x91o'
p1546
g11
sS'mariela lopez sosa'
p1547
g6
sS'polimnia romana sierra barcena'
p1548
g9
sS'jose amaya berrocal'
p1549
g25
sS'gustavo rico de saro'
p1550
g19
sS'maribel martinez ruiz'
p1551
g52
sS'ezequiel hernandez gonzalez'
p1552
g11
sS'marcia euridice caceres gonzalez'
p1553
g2
sS'emma moreno villarreal'
p1554
g11
sS'elvia maria ramirez escobedo'
p1555
g52
sS'hansel paez soria'
p1556
g6
sS'idida alejandra ramos l\xc3\x93pez'
p1557
g16
sS'norma teresa acevedo miguel'
p1558
g6
sS'sebastian jose de jesus perez martinez'
p1559
g19
sS'antonio ortega martinez'
p1560
g13
sS'melissa guadarrama lara'
p1561
g19
sS'jaime fernandez gutierrez'
p1562
g13
sS'maria ofelia espinoza cuevas'
p1563
g31
sS'maritza marin marcelo'
p1564
g19
sS'jorge mario madrigal silva'
p1565
g19
sS'ruth amelia chavez parra'
p1566
g4
sS'rocio guevara lopez'
p1567
g11
sS'mitsuo janathan ixcoatl hernandez delgado'
p1568
g4
sS'luis antonio s\xc3\x81nchez ch\xc3\x81vez'
p1569
g11
sS'jaime javier granillo vargas'
p1570
g52
sS'flora tania cruz santos'
p1571
g4
sS'luis enrique martinez ventura'
p1572
g4
sS'hector agustin murguia lardizabal'
p1573
g19
sS'ana laura betancourt mendoza'
p1574
g25
sS'jaime arnoldo ventura zamora'
p1575
g6
sS'daniel nieto martinez'
p1576
g35
sS'daniel urbina diaz de leon'
p1577
g52
sS'sonia angelica rivas espitia'
p1578
g19
sS'daniela hernandez sandoval'
p1579
g6
sS'alfredo kuri badillo'
p1580
g19
sS'luis gerardo casillas araiza'
p1581
g25
sS'maria alejandra hinojosa maldonado'
p1582
g6
sS'maribel aguilera chairez'
p1583
g4
sS'dulce maria gonzalez serrano'
p1584
g13
sS'dulce maria sauri riancho'
p1585
g19
sS'adolfo jonathan solis gomez'
p1586
g16
sS'samuel barajas novela'
p1587
g31
sS'adrianha rangel flores'
p1588
g19
sS'yessica lorena gamboa briano'
p1589
g19
sS'adan soria ramirez'
p1590
g19
sS'alejandro loyola guerra'
p1591
g52
sS'juan carlos garcia garcia'
p1592
g25
sS'yolanda cisneros sosa'
p1593
g25
sS'maria bertha espinoza segura'
p1594
g4
sS'marco antonio luna guevara'
p1595
g52
sS'alfonso navarrete villa'
p1596
g13
sS'martha gabriela valladares couoh'
p1597
g6
sS'hugo daniel vazquez san juan'
p1598
g6
sS'jaime galindo ugalde'
p1599
g16
sS'ricardo flavio aguirre gutierrez'
p1600
g16
sS'cesar augusto reyes ortega'
p1601
g19
sS'guadalupe vargas tapia'
p1602
g6
sS'gemma alejandra mu\xc3\x91oz osuna'
p1603
g52
sS'eduardo manuel contreras garcia'
p1604
g52
sS'oscar fernando carbajal perez'
p1605
g6
sS'honorio pedral florentino'
p1606
g11
sS'francisco eduardo moreno mercadillo'
p1607
g19
sS'hector carbajal peraza'
p1608
g25
sS'ma gabriela herring chavez'
p1609
g11
sS'alberto david moreno caltontzin'
p1610
g11
sS'samantha carolina gomes fonseca'
p1611
g11
sS'hector ramon carmelo'
p1612
g11
sS'arturo salvador granados filorio'
p1613
g19
sS'araceli santiago martinez'
p1614
g31
sS'erika bautista garc\xc3\x8da'
p1615
g11
sS'candido antonio ferrer'
p1616
g19
sS'alicia pe\xc3\x91a chargoy'
p1617
g19
sS'moises aaron rivas loaiza'
p1618
g16
sS'leslie angelina hendricks rubio'
p1619
g16
sS'elimelec gil burgos'
p1620
g31
sS'elizabeth miguel hernandez'
p1621
g6
sS'ma de lourdes vazquez herrera'
p1622
g52
sS'santiago perez hernandez'
p1623
g52
sS'jorge salvador lam chang'
p1624
g13
sS'alejandro tirado martinez'
p1625
g52
sS'veronica cortes campos'
p1626
g25
sS'gabriela ramirez perez'
p1627
g6
sS'eder de jesus lopez garcia'
p1628
g31
sS'ana graciela perez cruz'
p1629
g11
sS'faustino guerrero posadas'
p1630
g25
sS'ruben angel reyes velazquez'
p1631
g31
sS'claudia ivonne mendoza peregrina'
p1632
g11
sS'jorge morales barud'
p1633
g16
sS'karina alejandra hinojosa taomori'
p1634
g19
sS'david enrique pech ramirez'
p1635
g11
sS'lourdes marisol cervantes ramirez'
p1636
g25
sS'maria reyna moreno zamora'
p1637
g6
sS'ana laura flores hernandez'
p1638
g2
sS'laura sandra morales ruiz'
p1639
g9
sS'beatriz escobedo castro'
p1640
g25
sS'pedro gustavo barragan nu\xc3\x91o'
p1641
g35
sS'lorena abascal herrero'
p1642
g9
sS'jose antonio contreras bustamante'
p1643
g25
sS'ramon demetrio guerrero martinez'
p1644
g9
sS'elizabeth franco varela'
p1645
g52
sS'fuensanta guadalupe guerrero esquivel'
p1646
g19
sS'ulises garcia soto'
p1647
g4
sS'gabriel suarez lopez'
p1648
g31
sS'maria del angel vargas romero'
p1649
g31
sS'fernando rodriguez salas'
p1650
g13
sS'marcelino gomez brenes'
p1651
g4
sS'marcela juarez martinez'
p1652
g11
sS'david bautista rivera'
p1653
g37
sS'rubi laura lopez silva'
p1654
g6
sS'cesar said solis gordillo'
p1655
g31
sS'maria del socorro vidrio gonzalez'
p1656
g11
sS'osmar sandiel barreal valenzuela'
p1657
g6
sS'ruth yazmin mendoza garcia'
p1658
g13
sS'enrique ochoa reza'
p1659
g19
sS'rafael alejandro echazarreta torres'
p1660
g31
sS'lilia carrizales gallegos'
p1661
g11
sS'rafael ochoa guzman'
p1662
g52
sS'carlos alberto gardu\xc3\x91o velazquez'
p1663
g19
sS'roderick espinosa flores'
p1664
g11
sS'fabiola alejandra pazos arce'
p1665
g2
sS'irma maria teran villalobos'
p1666
g19
sS'irineo molina espinoza'
p1667
g4
sS'adriana maria guadalupe espinosa de los monteros garcia'
p1668
g4
sS'reynaldo lopez martinez'
p1669
g25
sS'rosa de lima lopez escobar'
p1670
g16
sS'ernesto alfonso robledo leal'
p1671
g6
sS'benjamin franco muci\xc3\x91o'
p1672
g52
sS'ma teresa botello alvarez'
p1673
g6
sS'abelina lopez rodriguez'
p1674
g4
sS'noreya portilla gumecindo'
p1675
g9
sS'guillermo garcia burgue\xc3\x91o'
p1676
g31
sS'geraldina isabel herrera vega'
p1677
g9
sS'israel mosqueda gasca'
p1678
g4
sS'nora vanessa estrada calles'
p1679
g35
sS'adriana adame correa'
p1680
g25
sS'rodolfo guadalupe quiroz mar'
p1681
g9
sS'jeanett hervert goytortua'
p1682
g2
sS'alondra paloma miranda valencia'
p1683
g6
sS'gloria romero leon'
p1684
g6
sS'victor manuel cornejo diaz'
p1685
g52
sS'maria guadalupe lopez lopez'
p1686
g52
sS'kendra martinez sanchez'
p1687
g11
sS'vladimir abisai sanchez rendon'
p1688
g11
sS'jessica margarita zetina coli'
p1689
g9
sS'jorge roberto ruiz esparza oru\xc3\x91a'
p1690
g9
sS'maria fernanda vega rangel'
p1691
g52
sS'sergio augusto lopez ramirez'
p1692
g25
sS'jose gabriel gutierrez hopkins'
p1693
g19
sS'mary carmen bernal martinez'
p1694
g52
sS'berenice abigail villegas rivera'
p1695
g25
sS'miguel alejandro estrella montoya'
p1696
g11
sS'benjamin solano tovar'
p1697
g11
sS'evelyn nataly mendoza nava'
p1698
g13
sS'maria de los angeles perez alba'
p1699
g25
sS'juan emmanuel espiricueta castillo'
p1700
g11
sS'carlos fernando angulo parra'
p1701
g9
sS'jesus siller rojas'
p1702
g35
sS'raul guajardo cantu'
p1703
g35
sS'lucinda sandoval soberanes'
p1704
g37
sS'lorena garcia hernandez'
p1705
g52
sS'mario alberto gonzalez aguilera'
p1706
g9
sS'javier julian casta\xc3\x91eda pomposo'
p1707
g4
sS'yamilett ordu\xc3\x91a saide'
p1708
g35
sS'sergio fernando ascencio barba'
p1709
g9
sS'aurelia benitez castillejos'
p1710
g9
sS'erendira zuzett castrej\xc3\x93n giles'
p1711
g25
sS'daniela soraya \xc3\x81lvarez hern\xc3\x81ndez'
p1712
g9
sS'karla liliana siles vilchis'
p1713
g11
sS'rocio del carmen macias gomez'
p1714
g4
sS'claudia valeria ya\xc3\x91ez centeno y cabrera'
p1715
g4
sS'marisol rovira castillo'
p1716
g31
sS'manuel de jesus solis garcia'
p1717
g11
sS'cristobal jacome huesca'
p1718
g13
sS'kenia rosaura morones meza'
p1719
g25
sS'pedro silvestre alvarez martinez'
p1720
g25
sS'elias ibarra torres'
p1721
g9
sS'cynthia valdovinos sanchez'
p1722
g19
sS'susana cano gonzalez'
p1723
g37
sS'guillermo torres lopez'
p1724
g2
sS'casimiro zamora valdez'
p1725
g4
sS'judith adriana silva rosas'
p1726
g13
sS'augusto gomez villanueva'
p1727
g19
sS'sarai pares sibaja'
p1728
g19
sS'merced baldovino diego'
p1729
g9
sS'laura erika de jesus garza gutierrez'
p1730
g4
sS'francisco javier xolo lara'
p1731
g2
sS'maria del roble grajales flores'
p1732
g19
sS'claudia castello rebollar'
p1733
g9
sS'martha marcela marcos wong'
p1734
g9
sS'enoc hernandez cruz'
p1735
g16
sS'luis guzm\xc3\x81n aguirre'
p1736
g25
sS'sheila maria martinez bautista'
p1737
g11
sS'claudia olivia rangel chia'
p1738
g25
sS'yanet martinez dominguez'
p1739
g4
sS'ramon alberto cayeros perez'
p1740
g19
sS'marco antonio flores sanchez'
p1741
g4
sS'elena guadalupe mendieta vazquez'
p1742
g11
sS'mauricio lopez tapia'
p1743
g11
sS'marco mauricio estefania torres'
p1744
g13
sS'ruth celene galindo mendoza'
p1745
g6
sS'alicia aguila mendez'
p1746
g9
sS'marcia lorena camarena moncada'
p1747
g31
sS'jose antonio medina vega'
p1748
g2
sS'irasema del carmen buenfil diaz'
p1749
g4
sS'hector alfredo martinez esquivel'
p1750
g37
sS'ma del carmen cabrera lagunas'
p1751
g4
sS'edwin hernandez garrido'
p1752
g31
sS'rafael francisco jaime nu\xc3\x91ez'
p1753
g9
sS'guadalupe cario velazquez'
p1754
g11
sS'anselmo morales salazar'
p1755
g52
sS'noemi ojeda acosta'
p1756
g25
sS'mario emilio berea morales'
p1757
g25
sS'olga juliana elizondo guerra'
p1758
g4
sS'mauro guzman rivera'
p1759
g31
sS'luis antonio lam angulo'
p1760
g13
sS'jose ignaco olvera caballero'
p1761
g13
sS'beatriz dominga perez lopez'
p1762
g37
sS'efren moises varela zarate'
p1763
g31
sS'georgina mu\xc3\x91oz hernandez'
p1764
g2
sS'erika vanessa del castillo ibarra'
p1765
g4
sS'ursus alberto medina rivera'
p1766
g11
sS'edith carolina anda gonzalez'
p1767
g31
sS'jairo antonio arreola ceballos'
p1768
g52
sS'martha olivia garcia vida\xc3\x91a'
p1769
g4
sS'armando gonzalez escoto'
p1770
g4
sS'veronica isabel montoya uriarte'
p1771
g9
sS'arturo ortiz gutierrez'
p1772
g11
sS'gloria guadalupe avalos galvez'
p1773
g11
sS'joaquin alberto perez alaniz'
p1774
g52
sS'milton carlos perez mar'
p1775
g11
sS'olga lidia hernandez flores'
p1776
g31
sS'humberto isaac rodriguez herrera'
p1777
g19
sS'zulema dominguez sandoval'
p1778
g19
sS'martin raul irigoyen ramirez'
p1779
g2
sS'leonardo antonio garcia rodriguez'
p1780
g13
sS'ana lilia guill\xc3\x89n quiroz'
p1781
g4
sS'laura adanely caro romero'
p1782
g11
sS'adriana arellano garcia'
p1783
g37
sS'ma. concepcion rosales avila'
p1784
g11
sS'pablo g\xc3\x93mez alvarez'
p1785
g4
sS'hortensia maria luisa noro\xc3\x91a quezada'
p1786
g19
sS'pablo jimenez garcia'
p1787
g52
sS'lorenza edith ponce canales'
p1788
g52
sS'lucia flores olivo'
p1789
g37
sS'maria dolores hernandez bonifaz'
p1790
g31
sS'raquel hurtado barrera'
p1791
g9
sS'cora amalia castilla madrid'
p1792
g16
sS'silvia alejandre maravilla'
p1793
g19
sS'maria guadalupe murguia carranza'
p1794
g16
sS'reyna ramos nava'
p1795
g52
sS'carlos eduardo felton gonzalez'
p1796
g9
sS'ana rosa valdes salazar'
p1797
g19
sS'diego armando estefania torres'
p1798
g13
sS'myrna rocio alvarez gular'
p1799
g31
sS'maria isidra de la luz rivas'
p1800
g52
sS'gloria dolores iba\xc3\x91ez avenda\xc3\x91o'
p1801
g11
sS'magda selene minjarez guzman'
p1802
g19
sS'moises lopez valle'
p1803
g2
sS'fernando cuellar reyes'
p1804
g9
sS'eva alicia gallardo arellano'
p1805
g2
sS'salomon juan dip leos'
p1806
g19
sS'cesar martin vargas orozco'
p1807
g11
sS'fernando garibay palomino'
p1808
g25
sS'juan pablo lopez marun'
p1809
g19
sS'geovany lopez arizmendi'
p1810
g2
sS'zandra ba\xc3\x91uelos de la torre'
p1811
g52
sS'jose abella garcia'
p1812
g25
sS'joel israel sampayo islas'
p1813
g11
sS'fernando winzig leon'
p1814
g2
sS'rocio del pilar villarauz martinez'
p1815
g37
sS'esteban martinez zu\xc3\x91iga'
p1816
g52
sS'laura ramos gomez'
p1817
g25
sS'jos\xc3\x89 alberto mart\xc3\x8dnez carrillo'
p1818
g11
sS'zenon mu\xc3\x91oz'
p1819
g31
sS'martha alicia tristan guzman'
p1820
g4
sS'abelardo guzman gomez'
p1821
g52
sS'adela pi\xc3\x91a bernal'
p1822
g37
sS'luis vega aguilar'
p1823
g19
sS'rafael ruiz figueroa'
p1824
g13
sS'maria jose ambrosio hernandez'
p1825
g19
sS'yazmin lucena palacios'
p1826
g52
sS'nancy guadalupe vazquez martinez'
p1827
g25
sS'gustavo maldonado rodriguez'
p1828
g2
sS'humberto jesus robles pompa'
p1829
g16
sS'luis tomas vanoye carmona'
p1830
g6
sS'karina romero alcala'
p1831
g19
sS'maria dolores gonzalez castellanos'
p1832
g25
sS'luz maria santiago jimenez'
p1833
g13
sS'ivonne liliana alvarez garcia'
p1834
g19
sS'guadalupe maria bautista calatayud'
p1835
g19
sS'idalia reyes miguel'
p1836
g37
sS'francisca bernal soto'
p1837
g52
sS'brenda ivonne gomez pintor'
p1838
g6
sS'margot de los santos lara'
p1839
g6
sS'miguel angel marquez gonzalez'
p1840
g37
sS'pammela ximena ramirez pe\xc3\x91afort'
p1841
g25
sS'elizabeth pech sima'
p1842
g6
sS'david encinas medina'
p1843
g11
sS'jorge tirado zamarripa'
p1844
g25
sS'monica diaz sanchez'
p1845
g2
sS'miriam citlally perez mackintosh'
p1846
g37
sS'maria fernanda trejo lugo'
p1847
g52
sS'amparo acu\xc3\x91a figueroa'
p1848
g6
sS'gustavo michua y michua'
p1849
g16
sS'ana karen guadarrama santamaria'
p1850
g19
sS'maria del consuelo calvillo soto'
p1851
g25
sS'ruben rodriguez leal'
p1852
g11
sS'hilda santos padron'
p1853
g25
sS'elizabeth regnier cano'
p1854
g11
sS'carmen julia prudencio gonzalez'
p1855
g9
sS'jose luis aleman martinez'
p1856
g31
sS'mar\xc3\x8da eugenia hern\xc3\x81ndez perez'
p1857
g4
sS'guadalupe silva rueda'
p1858
g11
sS'alain fernando preciado lopez'
p1859
g2
sS'marco antonio lopez peralta'
p1860
g11
sS'martha elizabeth frias dominguez'
p1861
g13
sS'jesus alejandro rodriguez delgado'
p1862
g31
sS'angel valle de la o'
p1863
g25
sS'aline martorell chavez'
p1864
g2
sS'julio cesar sanchez lopez'
p1865
g31
sS'delia hernandez sanchez'
p1866
g52
sS'benjamin saul huerta corona'
p1867
g4
sS'itzel sarahi rios de la mora'
p1868
g19
sS'oscar alberto chavez garcia'
p1869
g25
sS'daniela vega rangel'
p1870
g52
sS'mar\xc3\x8da de los \xc3\x81ngeles huerta del rio'
p1871
g4
sS'vicente ramos gonzalez'
p1872
g25
sS'carlos alberto hernandez martinez'
p1873
g6
sS'arlen virginia meza paz'
p1874
g2
sS'maria juana rojas coate'
p1875
g9
sS'victor hugo galvez astorga'
p1876
g6
sS'carlos aurelio pe\xc3\x91a badillo'
p1877
g16
sS'mario alejandro arredondo esquivel'
p1878
g11
sS'carolina caballero mora'
p1879
g25
sS'esmeralda de los angeles moreno medina'
p1880
g4
sS'esau magallanes alonso'
p1881
g9
sS'karla montserrat garcia garcia'
p1882
g25
sS'adela samantha davalos anaya'
p1883
g19
sS'reina margarita ramirez herrera'
p1884
g25
sS'ramon alejandro gallardo reyes'
p1885
g11
sS'carlos torres pi\xc3\x91a'
p1886
g13
sS'anabel selene diaz aguilar'
p1887
g11
sS'ivideliza reyes hernandez'
p1888
g9
sS'mildred concepcion avila vera'
p1889
g4
sS'juan oscar vazquez chavez'
p1890
g13
sS'ximena salazar garcia'
p1891
g11
sS'rodolfo mares rocha'
p1892
g25
sS'mario alberto perez manzo'
p1893
g11
sS'jesus de leon tello'
p1894
g6
sS'romero estrella armando'
p1895
g25
sS'jorge xavier guevara ramirez'
p1896
g2
sS'jesus zeferino lee rodriguez'
p1897
g9
sS'erick valdespino zubieta'
p1898
g31
sS'francisco javier mosqueda manzo'
p1899
g4
sS'alina perez gonzalez'
p1900
g19
sS'florentino pineda ramirez'
p1901
g11
sS'diana salazar palacios'
p1902
g11
sS'hilda patricia ortega najera'
p1903
g4
sS'jorge manuel lizama villalba'
p1904
g6
sS'iris fernanda sanchez chiu'
p1905
g16
sS'maria isabel de la pe\xc3\x91a angulo'
p1906
g19
sS'mayra hernandez alvarado'
p1907
g13
sS'griselda carrillo reyes'
p1908
g19
sS'priscilla fabiola cavagna cordero'
p1909
g13
sS'martha patricia aguilar ramirez'
p1910
g25
sS'mauricio morales beiza'
p1911
g52
sS'cynthia iliana lopez castro'
p1912
g19
sS'jose luis briones brise\xc3\x91o'
p1913
g11
sS'ma de los angeles ayala diaz'
p1914
g9
sS'sebastian aguilera brenes'
p1915
g37
sS'victor manuel ramirez aguilar'
p1916
g6
sS'karen pilar armendariz loureiro'
p1917
g19
sS'lorenzo licea rojas'
p1918
g19
sS'monica reyes carmona'
p1919
g6
sS'maria gonzalez perez'
p1920
g2
sS'carla patricia hernandez gonzalez'
p1921
g4
sS'erik isaac morales elvira'
p1922
g4
sS'paulina rubio fernandez'
p1923
g6
sS'angel antonio lopez hernandez'
p1924
g52
sS'lesli carolina lopez velarde veloz'
p1925
g25
sS'sergio david palacios montes'
p1926
g19
sS'maria teresa lopez perez'
p1927
g37
sS'ma de jesus garcia guardado'
p1928
g37
sS'cipriano charrez pedraza'
p1929
g37
sS'jorge agustin zepeda cruz'
p1930
g19
sS'daniela guadalupe griego ceballos'
p1931
g4
sS'hector hugo hernandez rodriguez'
p1932
g9
sS'david ortiz ortega'
p1933
g6
sS'julio hugo sanchez quiroz'
p1934
g35
sS'isidoro calzada puc'
p1935
g11
sS'alberto esquer gutierrez'
p1936
g9
sS'karina melany ambriz angeles'
p1937
g31
sS'ernesto sanchez rodriguez'
p1938
g9
sS'eri rodriguez guzman'
p1939
g19
sS'jose ramon tellez juarez'
p1940
g6
sS'sandra rosa ortega garcia'
p1941
g25
sS'mitzi rocio badillo juarez'
p1942
g2
sS'jose alejandro zamudio rosales'
p1943
g13
sS'ricardo garcia escalante'
p1944
g9
sS'arturo vergara brice\xc3\x91o'
p1945
g52
sS'gregorio efrain espadas mendez'
p1946
g4
sS'jocelyn karen ortiz sanchez'
p1947
g25
sS'hector fabian gutierrez lopez'
p1948
g2
sS'jorge salas gutierrez'
p1949
g31
sS'karla almanza garcia'
p1950
g11
sS'idalia carolina zapata davalos'
p1951
g11
sS'julio cesar hernandez bustamante'
p1952
g2
sS'maria jose adame esparza'
p1953
g13
sS'enrique alonso plascencia'
p1954
g35
sS'andrea orozco vaca'
p1955
g2
sS'martin morales melchor'
p1956
g19
sS'adilene leon gonzalez'
p1957
g52
sS'monica cruz pablo'
p1958
g13
sS'javier barbosa gonzalez'
p1959
g25
sS'oliva aguirre perez'
p1960
g31
sS'demetrio almeda hernandez'
p1961
g4
sS'randy elizabeth perez solis'
p1962
g16
sS'lucero nieto romero'
p1963
g9
sS'delfino vicens ram\xc3\x8drez'
p1964
g25
sS'eduardo ron ramos'
p1965
g9
sS'mario trinidad tun santoyo'
p1966
g11
sS'rebeca marisol martinez gonzalez'
p1967
g13
sS'julieta rodriguez mayer'
p1968
g19
sS'arturo escobar y vega'
p1969
g25
sS'elizabeth del carmen duron sanchez'
p1970
g6
sS'veronica beatriz juarez pi\xc3\x91a'
p1971
g13
sS'javier llerenas cobian'
p1972
g2
sS'fabiola rosas martinez'
p1973
g11
sS'lucila garfias gutierrez'
p1974
g11
sS'samuel calderon medina'
p1975
g37
sS'jaime daniel maya hernandez'
p1976
g25
sS'hector gonzalez serrano'
p1977
g25
sS'armando benito de jesus saenz barella'
p1978
g19
sS'mario ruiz dominguez'
p1979
g11
sS'angel eduardo zamora gonzalez'
p1980
g19
sS'joaquin alberto lorenzana rejon'
p1981
g25
sS'ricardo antonio rodriguez rodriguez'
p1982
g2
sS'viridiana guadalupe gonzalez gutierrez'
p1983
g11
sS'paola tenorio adame'
p1984
g4
sS'nadia marisa ruiz miramontes'
p1985
g19
sS'josue lira gil'
p1986
g25
sS'martha angelica tagle martinez'
p1987
g2
sS'alma rosa nu\xc3\x91ez gonzalez'
p1988
g19
sS'maria beatriz zavala peniche'
p1989
g6
sS'julieta garcia zepeda'
p1990
g37
sS'marco aurelio gamez servin'
p1991
g25
sS'hilda alcira chang valenzuela'
p1992
g13
sS'abraham gilberto avila figueroa'
p1993
g25
sS'maria del rosario merlin garcia'
p1994
g4
sS'luis javier de la rocha zazueta'
p1995
g9
sS'gabriela melimski coello alcazar'
p1996
g11
sS'francisco sinuhe ramirez oviedo'
p1997
g11
sS'maria magdalena hernandez lopez'
p1998
g11
sS'claudia patricia galindo alonso'
p1999
g11
sS'carolina del carmen limon huerta'
p2000
g6
sS'miguel torres hernandez'
p2001
g16
sS'gerardo misael giron montoya'
p2002
g25
sS'javier morales garcia'
p2003
g2
sS'ruben cayetano garcia'
p2004
g4
sS'karla spezzia morales'
p2005
g13
sS'miguel alejandro arellano sanchez'
p2006
g6
sS'jazmin alba duran'
p2007
g2
sS'gabriela casale guerra'
p2008
g9
sS'jocabeth pe\xc3\x91a escamilla'
p2009
g11
sS'alejandro mojica toledo'
p2010
g4
sS'juan ortiz guarneros'
p2011
g19
sS'hector enrique garcia gonzalez'
p2012
g25
sS'yudith vianey arana flores'
p2013
g25
sS'laura muci\xc3\x91o brito'
p2014
g19
sS'sandra patricia palacios medina'
p2015
g19
sS'carlos humberto gomez cruz'
p2016
g11
sS'fernando herrera avila'
p2017
g6
sS'flavia garcia garcia'
p2018
g16
sS'norma guadalupe espinosa mora'
p2019
g9
sS'jose gerardo rodolfo fernandez noro\xc3\x91a'
p2020
g4
sS'gonzalo cedillo valdes'
p2021
g2
sS'ricardo garay garc\xc3\x8da'
p2022
g11
sS'napoleon astudillo martinez'
p2023
g9
sS'monica catalina acosta santamaria'
p2024
g13
sS'jaime humberto perez bernabe'
p2025
g4
sS'marco antonio perez salazar'
p2026
g25
sS'ma del rosario gonzalez flores'
p2027
g9
sS'maria isela granillo lopez'
p2028
g37
sS'manuel tadeo avila carrera'
p2029
g11
sS'fernando arturo lira martinez'
p2030
g6
sS'sylvia estephania estrada garcia'
p2031
g31
sS'juan armando ruiz hernandez'
p2032
g2
sS'claudia reyes montiel'
p2033
g9
sS'francisco javier flores maldonado'
p2034
g13
sS'david gonzalez lopez'
p2035
g37
sS'haydee del carmen medina herrera'
p2036
g2
sS'claudia lizeth garza cavazos'
p2037
g4
sS'miriam josefina cano silva'
p2038
g4
sS'ana cecilia espino salas'
p2039
g25
sS'lidia nallely vargas hernandez'
p2040
g37
sS'jaime olazo aquino'
p2041
g31
sS'dolores edith sierra romero'
p2042
g11
sS'gerardo reyes morelos'
p2043
g11
sS'cynthia lorena patlan gutierrez'
p2044
g11
sS'maria elena mosqueda sanchez'
p2045
g19
sS'laura estela alvarado mendoza'
p2046
g52
sS'claudia idalia gonzalez mendez'
p2047
g11
sS'engracia vazquez martinez'
p2048
g37
sS'maria concepcion flores bastida'
p2049
g31
sS'jose francisco ozuna rodriguez'
p2050
g16
sS'ector jaime ramirez barba'
p2051
g9
sS'teresita de jesus vargas meraz'
p2052
g4
sS'alexa reyes nader'
p2053
g16
sS'joaquin ivan calva perez'
p2054
g2
sS'francisco favela pe\xc3\x91u\xc3\x91uri'
p2055
g4
sS'alberto villa villegas'
p2056
g37
sS'erika nayeli arrevillaga mekler'
p2057
g13
sS'eleuterio arrieta sanchez'
p2058
g4
sS'ma del refugio cruz pi\xc3\x91a'
p2059
g52
sS'lizbeth mata lozano'
p2060
g6
sS'juan carlos mu\xc3\x91oz marquez'
p2061
g6
sS'martha judith izquierdo salas'
p2062
g25
sS'gregorio farias mateos'
p2063
g35
sS'maria esmeralda martinez'
p2064
g11
sS'julio nazario aviles leal'
p2065
g11
sS'lucas madera alba'
p2066
g52
sS'ricardo padilla cruz'
p2067
g19
sS'soraya perez munguia'
p2068
g19
sS'maria elena longoria morales'
p2069
g31
sS'xochitl selene garcia pati\xc3\x91o'
p2070
g2
sS'oscar octavio moguel ballado'
p2071
g2
sS'pablo efren duarte sanchez'
p2072
g4
sS'el\xc3\x8das rubalcava de la rosa'
p2073
g11
sS'felicitas hernadez monta\xc3\x91o'
p2074
g16
sS'yolanda mu\xc3\x91iz leal'
p2075
g11
sS'erika paola tafoya ruiz'
p2076
g52
sS'hector garcia garcia'
p2077
g19
sS'alejandra cardenas castillejos'
p2078
g19
sS'juan carlos rosas rojas'
p2079
g13
sS'rocio del carmen priego mondragon'
p2080
g2
sS'maria de los angeles gutierrez valdez'
p2081
g9
sS'nury delia ruiz ovando'
p2082
g9
sS'maria del carmen rizo ruiz'
p2083
g11
sS'desiree sophia irigoyen torres'
p2084
g2
sS'adan amador hernandez prior'
p2085
g11
sS'francisco javier borrego adame'
p2086
g4
sS'elizabeth portales martinez'
p2087
g52
sS'dulce maria corina villegas guarneros'
p2088
g4
sS'manuel pozo cabrera'
p2089
g19
sS'ana ma de los angeles soto almodovar'
p2090
g13
sS'manuel alejandro hinojosa banda'
p2091
g25
sS'adoniram rodriguez ramirez'
p2092
g2
sS'rodrigo segura guerrero'
p2093
g31
sS'luis fernando soto jacquez'
p2094
g19
sS'margarita ramos villeda'
p2095
g9
sS'reyna guadalupe garza hinojosa'
p2096
g4
sS'gloria gonzalez burboa'
p2097
g9
sS'filemon zeferino mendoza'
p2098
g25
sS'juan garcia caraveo'
p2099
g52
sS'marcela alexis trevi\xc3\x91o unda'
p2100
g4
sS'armando garcia garcia'
p2101
g31
sS'maria guadalupe jimenez tovar'
p2102
g13
sS'minerva oca\xc3\x91a perez'
p2103
g19
sS'carlos alberto puente salas'
p2104
g25
sS'rafael garcia del horno'
p2105
g19
sS'eduardo lorenzo martinez arcila'
p2106
g6
sS'maria teresa constantino jimenez'
p2107
g31
sS'nallely farfan ramirez'
p2108
g11
sS'jose elias lixa abimerhi'
p2109
g9
sS'alejandra maria gasca gonzalez'
p2110
g11
sS'ana cristina ruiz rangel'
p2111
g9
sS'alejandra pani barragan'
p2112
g4
sS'jos\xc3\x89 roberto de luna alonso'
p2113
g6
sS'alonso sanchez alvarez'
p2114
g11
sS'lorena beaurregard de los santos'
p2115
g19
sS'maria guadalupe ramirez rivas'
p2116
g25
sS'san juana mariel garcia de leon'
p2117
g11
sS'julio carranza areas'
p2118
g37
sS'angelica pe\xc3\x91a martinez'
p2119
g25
sS'carlos mercado valencia'
p2120
g11
sS'diana laura marroquin bayardo'
p2121
g52
sS'ma del rosario perez dena'
p2122
g4
sS'rufina cocoletzi lopez'
p2123
g19
sS'luis elrich gomez medel'
p2124
g25
sS'david de la rosa anaya'
p2125
g9
sS'guadalupe romo romo'
p2126
g9
sS'cesar ignacio abarca gutierrez'
p2127
g19
sS'claudia brigida navarrete aldaco'
p2128
g19
sS'jose gerardo betancourt garcia'
p2129
g11
sS'jairzinho flores llamas'
p2130
g31
sS'kathya andrea gutierrez leano'
p2131
g6
sS'maria lucero salda\xc3\x91a perez'
p2132
g19
sS'mariana rivera gonzalez'
p2133
g11
sS'thania monserrat garc\xc3\x8da mart\xc3\x8dnez'
p2134
g25
sS'hiram valdez chavez'
p2135
g11
sS'juan martinez flores'
p2136
g4
sS'maria aleman mu\xc3\x91oz castillo'
p2137
g19
sS'sebastian reyes arellano'
p2138
g11
sS'edgar reyes lopez'
p2139
g16
sS'georgina isabel brise\xc3\x91o mendoza'
p2140
g19
sS'miguel angel mu\xc3\x91oz hernandez'
p2141
g19
sS'veronica maria sobrado rodriguez'
p2142
g6
sS'jose antonio zumaya de la mora'
p2143
g31
sS'rafael luna jimenez'
p2144
g13
sS'esther martinez romano'
p2145
g52
sS'juan pablo gamez cabrera'
p2146
g13
sS'karla yliana romero gomez'
p2147
g13
sS'laura leticia barrientos castelan'
p2148
g25
sS'said vargas castelan'
p2149
g31
sS'jose ariel ferrer garcia'
p2150
g2
sS'mario valerio hernandez'
p2151
g25
sS'alondra gisel ortiz ontiveros'
p2152
g31
sS'agustin corona ramirez'
p2153
g9
sS'romina poumian gonzalez'
p2154
g25
sS'raul rodriguez guerrero'
p2155
g6
sS'alma delia navarrete rivera'
p2156
g4
sS'martha estela manzano ramirez'
p2157
g11
sS'marco antonio juan acosta'
p2158
g25
sS'juan cuauthemoc rizo guadian'
p2159
g6
sS'isidro l\xc3\x93pez villarreal'
p2160
g9
sS'itzel yarith lopez ruiz'
p2161
g9
sS'manuela gomez hernandez'
p2162
g9
sS'juana carrillo luna'
p2163
g37
sS'paola yeraldine garcia uribe'
p2164
g52
sS'manuel rosales cruz'
p2165
g52
sS'raul ba\xc3\x91os tinoco'
p2166
g6
sS'absalon garc\xc3\x8da ochoa'
p2167
g9
sS'victor blas lopez'
p2168
g37
sS'maria hilaria dominguez arvizu'
p2169
g19
sS'alvaro martinez hernandez'
p2170
g52
sS'manuela del carmen obrador narvaez'
p2171
g4
sS'irma flores gonzalez'
p2172
g11
sS'ruben benjamin felix hays'
p2173
g16
sS'maria guadalupe arguelles lozano'
p2174
g4
sS'oscar alberto mauricio carrera'
p2175
g52
sS'pervis ramirez camacho'
p2176
g11
sS'carolina maria garza guerra'
p2177
g2
sS'jose luis moreno madrigal'
p2178
g11
sS'angelica rocio melchor vasquez'
p2179
g13
sS'felipe rafael arvizu de la luz'
p2180
g4
sS'karen jannet sanchez marin'
p2181
g25
sS'oscar bautista villegas'
p2182
g16
sS'ulises murguia soto'
p2183
g4
sS'yolanda leticia ruiz sanchez'
p2184
g4
sS'carla maria pati\xc3\x91o reyes'
p2185
g11
sS'pedro daniel abasolo sanchez'
p2186
g37
sS'claudia elia moreno garcia'
p2187
g11
sS'rodolfo martinez monta\xc3\x91ez'
p2188
g52
sS'francisco romero calder\xc3\x93n'
p2189
g25
sS'luis salvador morales garcia'
p2190
g11
sS'pedro estrada cordova'
p2191
g2
sS'yuriana lopez mora'
p2192
g25
sS'alicia hernandez campos'
p2193
g6
sS'sandra corona padilla'
p2194
g16
sS'roger herve aguilar salazar'
p2195
g4
sS'mireille ochoa aguilar'
p2196
g9
sS'isabel gracia gonzalez'
p2197
g11
sS'oscar francisco cuapio lopez'
p2198
g11
sS'carolina garcia aguilar'
p2199
g4
sS'heriberto villarreal benitez'
p2200
g31
sS'mario martin delgado carrillo'
p2201
g4
sS'jeovana mariela alcantar baca'
p2202
g9
sS'lucio ernesto palacios cordero'
p2203
g37
sS'dalia araceli parraguirre gomez'
p2204
g11
sS'fernando donato de las fuentes hernandez'
p2205
g16
sS'david secundino galvan cazares'
p2206
g6
sS'emma mu\xc3\x91oz cendon'
p2207
g11
sS'mariana guillermo perez'
p2208
g25
sS'fatima celeste diaz fernandez'
p2209
g6
sS'laura martinez gonzalez'
p2210
g37
sS'liliana diaz betancourt'
p2211
g19
sS'jose menchaca lopez'
p2212
g16
sS'carolina martinez herrera bravo'
p2213
g13
sS'gerardo octavio vargas torres'
p2214
g19
sS'reginaldo sandoval flores'
p2215
g52
sS'alfonso ponce varela'
p2216
g11
sS'alberto gonzalez gomez'
p2217
g2
sS'leslie monserrat orozco verdin'
p2218
g25
sS'javier alfonso ibarra angulo'
p2219
g31
sS'lidia garcia anaya'
p2220
g37
sS'francisco arenas herrera'
p2221
g37
sS'carlos ignacio solis martinez'
p2222
g6
sS'arnoldo ochoa gonzalez'
p2223
g19
sS'eder fernando rocha vazquez'
p2224
g2
sS'sara salinas reyes'
p2225
g9
sS'julia linares g\xc3\x93mez'
p2226
g25
sS'beatriz lizbeth gonzalez ramirez'
p2227
g11
sS'neftali armando del toro guzman'
p2228
g16
sS'juan omar avalos garcia'
p2229
g25
sS'francisco franco soler'
p2230
g25
sS'rigoberto navarro murillo'
p2231
g13
sS'elsa daniela acosta gutierrez'
p2232
g11
sS'azael santiago chepi'
p2233
g4
sS'irma violeta perez esquivel'
p2234
g19
sS'narciso barrientos torres'
p2235
g11
sS'mar\xc3\x8da guadalupe rom\xc3\x81n \xc3\x81vila'
p2236
g4
sS'silvia elena del valle y balbuena'
p2237
g19
sS'ingrid del pilar santos diaz'
p2238
g9
sS'zeferina gomez becerra'
p2239
g37
sS'dalia guadalupe geraldo geraldo'
p2240
g6
sS'laura gutierrez urquidez'
p2241
g2
sS'anibal gomez marquina'
p2242
g35
sS'jorge arturo espadas galv\xc3\x81n'
p2243
g9
sS'paola elizabeth angon silva'
p2244
g6
sS'oscar meza aguilar'
p2245
g9
sS'julio cesar hernandez garcia'
p2246
g11
sS'luis angel benavides garza'
p2247
g35
sS'maria cristina garcia mejia'
p2248
g31
sS'sergio arturo gonzalez i\xc3\x91iguez'
p2249
g25
sS'eduardo perez tovar'
p2250
g6
sS'kehila abigail ku escalante'
p2251
g9
sS'carlos enrique mart\xc3\x8dnez ake'
p2252
g4
sS'sergio vazquez castillo'
p2253
g31
sS'luis bernardo thomas gutu'
p2254
g2
sS'ramiro ramos salinas'
p2255
g19
sS'miguel angel karam enriquez'
p2256
g19
sS'yesenia galarza castro'
p2257
g9
sS'karla reyes zamora'
p2258
g13
sS'alejandra de los angeles novelo segura'
p2259
g4
sS'marco antonio adame castillo'
p2260
g6
sS'hector raul perez guzman'
p2261
g19
sS'reyna celeste ascencio ortega'
p2262
g37
sS'adriana guadalupe ya\xc3\x91ez machorro'
p2263
g25
sS'manuela isela portillo d\xc3\x8daz'
p2264
g25
sS'blanca estela soto ruiz'
p2265
g31
sS'lourdes celenia contreras gonzalez'
p2266
g9
sS'gerardo l\xc3\x93pez montoya'
p2267
g4
sS'sandy yesenia salas carbajal'
p2268
g52
sS'agni otto garcia garcia'
p2269
g11
sS'roberto meza leon'
p2270
g52
sS'ariel rodriguez vazquez'
p2271
g9
sS'margarita lopez lugo'
p2272
g11
sS'arelia aguilar esquivel'
p2273
g11
sS'santa montalvo de la mora'
p2274
g52
sS'alejandro arturo calvillo apolinar'
p2275
g11
sS'silvia veronica gutierrez ba\xc3\x91uelos'
p2276
g11
sS'ana laura peza castellanos'
p2277
g19
sS'luis fernando quintero damian'
p2278
g11
sS'hamlet garcia almaguer'
p2279
g2
sS'jose luis huerta alatorre'
p2280
g11
sS'jorge luis montes nieves'
p2281
g4
sS'fernando puron johnston'
p2282
g19
sS'karla kristel garcia valencia'
p2283
g13
sS'ra\xc3\x9al gracia guzm\xc3\x81n'
p2284
g6
sS'daniela yolanda soto jimenez'
p2285
g52
sS'edel chona morales'
p2286
g16
sS'iv\xc3\x81n antonio p\xc3\x89rez ruiz'
p2287
g35
sS'maria dolores leal cantu'
p2288
g11
sS'gonzalo herrera perez'
p2289
g4
sS'pablo martin morales lucas'
p2290
g4
sS'karla ivonne torres burrola'
p2291
g37
sS'francisco humberto rangel turon'
p2292
g25
sS'marco israel zambrano perez'
p2293
g11
sS'amira azucena cruz ramirez'
p2294
g52
sS'juan israel ramos ruiz'
p2295
g37
sS'david alfredo del moral silva'
p2296
g13
sS'mario mata carrasco'
p2297
g9
sS'sarai acosta garcia'
p2298
g13
sS'cinthia  nayeli gomez hernandez'
p2299
g9
sS'martha estela romo cuellar'
p2300
g9
sS'carlos carreon mejia'
p2301
g6
sS'nohelia vargas carrasco'
p2302
g11
sS'erika mariana rosas uribe'
p2303
g25
sS'ana priscila gonzalez garcia'
p2304
g9
sS'jose luis elorza flores'
p2305
g4
sS'jose luis villanueba perez'
p2306
g52
sS'javier ariel hidalgo ponce'
p2307
g4
sS'marmelia cabral lopez'
p2308
g25
sS'esmeralda moreno beiza'
p2309
g16
sS'edmundo marin miguel'
p2310
g13
sS'maria jose paz rebolledo'
p2311
g6
sS'arturo garcia ruiz velasco'
p2312
g31
sS'mar\xc3\x8da guadalupe soto cota'
p2313
g25
sS'erika del rosario rosales moreno'
p2314
g25
sS'francisco javier saldivar camacho'
p2315
g4
sS'humberto eloy aguilar viveros'
p2316
g19
sS'georgina catalina barron bateman'
p2317
g11
sS'raymundo garcia gutierrez'
p2318
g9
sS'luis alberto mendoza acevedo'
p2319
g9
sS'silvia lucina gomez flora'
p2320
g31
sS'rodrigo maury lopez'
p2321
g25
sS'heriberta catalina corona campos'
p2322
g11
sS'marito\xc3\x91a calderon merida'
p2323
g9
sS'lourdes valdez cuevas'
p2324
g9
sS'irma estela nevarez guillen'
p2325
g25
sS'alejandro ledesma lopez'
p2326
g25
sS'israel sarabia garcia'
p2327
g16
sS'soledad rueda mu\xc3\x91oz'
p2328
g13
sS'juan carlos loera de la rosa'
p2329
g37
sS'gabriela del pilar lopez pallares'
p2330
g9
sS'ricardo estrada pedroza'
p2331
g25
sS'miguel alonso riggs baeza'
p2332
g9
sS'samantha wendolyn reyes mart\xc3\x8dnez'
p2333
g25
sS'carolina del carmen ugalde guerrero'
p2334
g2
sS'hector lopez gonzalez'
p2335
g4
sS'maribel ortiz coronado'
p2336
g52
sS'maria isabel alfaro morales'
p2337
g37
sS'berenice ramirez maya'
p2338
g13
sS'laura valdes guerra'
p2339
g19
sS'maria de la luz aguilar alarcon'
p2340
g25
sS'carmen medel palma'
p2341
g4
sS'javier angeles raygadas'
p2342
g31
sS'daniel solis salazar'
p2343
g6
sS'eliud gabriel medina peralta'
p2344
g13
sS'guadalupe elias ramirez'
p2345
g13
sS'juan de dios juanes carrizalez'
p2346
g19
sS'roberto hernandez gomez'
p2347
g9
sS'alvaro antonio navarro lopez'
p2348
g25
sS'edgar rafael arciniega gonzalez'
p2349
g25
sS'neftali salvador escobedo zoletto'
p2350
g9
sS'gonzalo adrian rosales olascoaga'
p2351
g13
sS'jose roberto haro villaescusa'
p2352
g19
sS'martin zepeda hernandez'
p2353
g13
sS'genesis marquez rubalcava'
p2354
g19
sS'salvador rivera castrellon'
p2355
g19
sS'jose jesus vazquez gonzalez'
p2356
g19
sS'ismael alfredo hernandez deras'
p2357
g19
sS'carlos humberto casta\xc3\x91os valenzuela'
p2358
g6
sS'patricia terrazas baca'
p2359
g6
sS'maria de fatima garcia leon'
p2360
g9
sS'yolanda santos cruz'
p2361
g25
sS'florencia minerva castellanos navarro'
p2362
g25
sS'anilu ingram vallines'
p2363
g19
sS'jorge ismael navarro mendoza'
p2364
g6
sS'luis fernando perez rivera'
p2365
g4
sS'maximino zanatta peralta'
p2366
g25
sS'guillermo alejandro alfonseca barradas'
p2367
g25
sS'ana sofia martinez sanchez'
p2368
g4
sS'ever azael sanchez barron'
p2369
g11
sS'luis fernando limon olvera'
p2370
g2
sS'martha beatriz cordova bernal'
p2371
g35
sS'laura alicia castellanos barrera'
p2372
g9
sS'martha elizabeth luna crespo'
p2373
g4
sS'ma de lourdes garrido vazquez'
p2374
g11
sS'jose carlos serrato castell'
p2375
g9
sS'elvia fatima perez aguilar'
p2376
g2
sS'armando franco dzul'
p2377
g52
sS'henrry natael medina arias'
p2378
g11
sS'carlos enriquez santos'
p2379
g16
sS'juana maria sanchez astello'
p2380
g19
sS'ricardo david ch\xc3\x81vez r\xc3\x8dos'
p2381
g9
sS'claudia nieto perez'
p2382
g25
sS'jacobo david cheja alfaro'
p2383
g2
sS'efrain guadalupe dominguez mata'
p2384
g11
sS'fany ivonne guzman vasquez'
p2385
g16
sS'manuel de jesus padilla plascencia'
p2386
g25
sS'roberto javier garcia narez'
p2387
g13
sS'maria del refugio ruiz moreno'
p2388
g19
sS'eduardo sanchez macias'
p2389
g9
sS'carlos pavon campos'
p2390
g19
sS'alan jesus falomir saenz'
p2391
g9
sS'cristian mojica solorzano'
p2392
g2
sS'sergio javier otal lobo'
p2393
g19
sS'jorge guevara lozada'
p2394
g11
sS'maria paola chavez olivares'
p2395
g13
sS'ercilia denisse mercado palacios'
p2396
g25
sS'leonardo abdul cintora casta\xc3\x91eda'
p2397
g11
sS'sara guadalupe castillo novelo'
p2398
g9
sS'berta iliana zu\xc3\x91iga mijangos'
p2399
g2
sS'ruhama carolina mitre alanis'
p2400
g13
sS'maritza mu\xc3\x91oz vargas'
p2401
g6
sS'rosa isela davalos mendez'
p2402
g19
sS'veronica ramos cruz'
p2403
g37
sS'ma del pilar ortega martinez'
p2404
g9
sS'miguel orea santiago'
p2405
g13
sS'frine adriana miranda flores'
p2406
g31
sS'carlos rangel aquino'
p2407
g16
sS'alejandra rosario irineo leon'
p2408
g19
sS'karla lizeth jacobo lopez'
p2409
g13
sS'uriel hernandez alvarado'
p2410
g25
sS'letty hern\xc3\x81ndez miranda'
p2411
g25
sS'maria isabel camarena perez'
p2412
g25
sS'jose juan barrientos maya'
p2413
g9
sS'norma angelica garcia navarro'
p2414
g31
sS'cinthya jazmin solis cabrero'
p2415
g25
sS'laura patricia avalos maga\xc3\x91a'
p2416
g4
sS'heriberto marcelo aguilar castillo'
p2417
g4
sS'liliana berenice rodriguez prieto'
p2418
g31
sS'hugo alejandro casillas de la llera'
p2419
g19
sS'yoanna jurado gaytan'
p2420
g11
sS'ximena ruiz uribe'
p2421
g19
sS'cesar emanuel harfuch prieto'
p2422
g19
sS'nadia lisbeth vite angeles'
p2423
g11
sS'mely romero celis'
p2424
g16
sS'emilio gustavo pozo gonzalez'
p2425
g25
sS'patricia garcia esparza'
p2426
g2
sS'karen liliana ruiz roman'
p2427
g31
sS'marisol juarez carretero'
p2428
g25
sS'ma. de jesus aguirre maldonado'
p2429
g19
sS'juan antonio lavin torres'
p2430
g19
sS'gabriela olvera marcial'
p2431
g13
sS'cornelio arnoldo gaxiola sanchez'
p2432
g6
sS'delia martinez garcia'
p2433
g11
sS'raul gerardo guerrero lara'
p2434
g52
sS'rogelio martinez escare\xc3\x91o'
p2435
g13
sS'mayra gisela pe\xc3\x91uelas acu\xc3\x91a'
p2436
g16
sS'gregorio espinoza deniz'
p2437
g6
sS'mayra janet hernandez olvera'
p2438
g25
sS'aurora hernandez lopez'
p2439
g31
sS'lizbeth guadalupe p\xc3\x89rez ventura'
p2440
g11
sS'gabriela concepci\xc3\x93n rivera rios'
p2441
g6
sS'adrian olvera espinosa'
p2442
g13
sS'carlos eduardo gonzalez vera'
p2443
g25
sS'ana maria gonzalez castellanos'
p2444
g4
sS'luis david lopez diaz'
p2445
g31
sS'analine elizabeth huizar perez'
p2446
g31
sS'carlos antonio franco flores'
p2447
g19
sS'martina cazarez ya\xc3\x91ez'
p2448
g37
sS'ma. guadalupe almaguer pardo'
p2449
g9
sS'ana karen ure\xc3\x91a calderon'
p2450
g13
sS'vania raziel canul gutierrez'
p2451
g11
sS'javier armando sarmiento almeyda'
p2452
g11
sS'nayeli arlen fernandez cruz'
p2453
g25
sS'guadalupe karina luna pe\xc3\x91aflores'
p2454
g19
sS'jose antonio pablo de la vega asmitia'
p2455
g13
sS'maria fernanda sierra salgado'
p2456
g11
sS'esperanza vargas parra'
p2457
g37
sS'ninel salazar bazan'
p2458
g9
sS'fernando ganado sanchez'
p2459
g2
sS'cuauhtemoc pe\xc3\x91a cortes'
p2460
g4
sS'aurelio hermosillo valenzuela'
p2461
g11
sS'carlos monta\xc3\x91o ledesma'
p2462
g31
sS'santiago hernandez ceron'
p2463
g6
sS'irene covarrubias dorado'
p2464
g31
sS'pedro rivera quirarte'
p2465
g11
sS'tania cabrera miranda'
p2466
g31
sS'maria del rosario alvarado estrada'
p2467
g4
sS'ana brisa ramos ramirez'
p2468
g13
sS'javier manzano salazar'
p2469
g4
sS'cesar manuel chavira sanchez'
p2470
g11
sS'roberta fernanda blasquez martinez'
p2471
g25
sS'carmen fabiola figueroa perez'
p2472
g2
sS'martin wences bahena'
p2473
g52
sS'dulce maria garcia lopez'
p2474
g13
sS'flerida del carmen gutierrez martinez'
p2475
g11
sS'ulises ruiz perez'
p2476
g11
sS'graciela s\xc3\x81nchez ortiz'
p2477
g4
sS'rene eduardo santiago gallegos'
p2478
g52
sS'cruz juvenal roa sanchez'
p2479
g16
sS'cruz karina guevara flores'
p2480
g2
sS'roxana luna porquillo'
p2481
g9
sS'yolanda guerrero barrera'
p2482
g4
sS'marcela guerra castillo'
p2483
g19
sS'monserrat perez cede\xc3\x91o'
p2484
g19
sS'victor matias hernandez andrade'
p2485
g11
sS'fernando medina bolio'
p2486
g25
sS'maria graciela parra lopez'
p2487
g35
sS'victor manuel perez diaz'
p2488
g6
sS'brasil alberto acosta pe\xc3\x91a'
p2489
g19
sS'oscar antonio cabrera moron'
p2490
g4
sS'bruno de jesus herrera monzon'
p2491
g9
sS'claudia baez ruiz'
p2492
g4
sS'francisco alberto zepeda gonzalez'
p2493
g16
sS'norma natividad perez garcia'
p2494
g11
sS'graciela ochoa quijada'
p2495
g19
sS'mario alberto cervantes palomino'
p2496
g16
sS'luz maria ramirez rangel'
p2497
g25
sS'yajaira azucena valenzuela amezquita'
p2498
g52
sS'erika gabriela perez lopez'
p2499
g25
sS'vicente alberto onofre vazquez'
p2500
g4
sS'rodrigo cerda cornejo'
p2501
g35
sS'alejandrina gonzalez romero'
p2502
g31
sS'hector yunes landa'
p2503
g19
sS'carmen mora garcia'
p2504
g4
sS'alma rosa moreno perez'
p2505
g31
sS'carlos hernandez reyez'
p2506
g19
sS'daniel marquez aburto'
p2507
g2
sS'jose fidel contreras martinez'
p2508
g16
sS'jose pulido diaz'
p2509
g11
sS'jorge carlos berlin montero'
p2510
g19
sS'anabel acosta islas'
p2511
g16
sS'ma. isabel lea\xc3\x91os gomez'
p2512
g25
sS'jaime antonio gutierrez de simone'
p2513
g52
sS'claudia aleman garcia'
p2514
g52
sS'erika vanessa alemon hernandez'
p2515
g9
sS'jose antonio estefan gillessen'
p2516
g16
sS'francisco elizondo garrido'
p2517
g25
sS'elizabeth maya paco'
p2518
g2
sS'raquel bonilla herrera'
p2519
g4
sS'nelly minerva carrasco godinez'
p2520
g4
sS'maria cristina velazquez valenzuela'
p2521
g19
sS'francisco javier huacus esquivel'
p2522
g4
sS'claudio david lozano jauregui'
p2523
g19
sS'maria eva lopez ruiz'
p2524
g52
sS'manuel flores quijano'
p2525
g52
sS'victor garcia hernandez'
p2526
g25
sS'adriana acosta borrego'
p2527
g31
sS'federico madrazo rojas'
p2528
g25
sS'felipe aguinaco gonzalez'
p2529
g25
sS'edgar israel martinez rubi'
p2530
g25
sS'renan rafael jimenez ku'
p2531
g52
sS'mireya capetillo garza'
p2532
g11
sS'maria candelaria jimenez leon'
p2533
g9
sS'lourdes erika sanchez martinez'
p2534
g19
sS'gina gerardina campuzano gonzalez'
p2535
g6
sS'ricardo aguilar castillo'
p2536
g16
sS'celerina landaverde linares'
p2537
g25
sS'naul esteban dominguez guerra'
p2538
g11
sS'jessica nu\xc3\x91ez padilla'
p2539
g52
sS'cristobal hernandez colin'
p2540
g52
sS'jorge luis diaz salinas'
p2541
g9
sS'christian alejandro morales moreno'
p2542
g11
sS'juan manuel armendariz rangel'
p2543
g11
sS'carmen adriana ibarra rodriguez'
p2544
g2
sS'agustin somellera pulido'
p2545
g25
sS'eduardo mendoza ayala'
p2546
g2
sS'martha angelica zamudio macias'
p2547
g2
sS'clara maria cardenas anfoso'
p2548
g25
sS'maria ester alonzo morales'
p2549
g16
sS'otto guillermo clausen iberri'
p2550
g16
sS'araceli butron venegas'
p2551
g2
sS'alejandra margarita giadans valenzuela'
p2552
g4
sS'julio waldemar malvido vargas'
p2553
g13
sS'everardo padilla camacho'
p2554
g6
sS'fernando gonzalez mejia'
p2555
g16
sS'ofelia barajas palomar'
p2556
g11
sS'lilia aguilar gil'
p2557
g52
sS'antonio peraza valdez'
p2558
g4
sS'maria fernanda moreno martin'
p2559
g31
sS'jaime cirilo labrada araiza'
p2560
g19
sS'jorge luis barrera de la rosa'
p2561
g11
sS'paulina lizette hernandez miranda'
p2562
g6
sS'carolina medina lopez'
p2563
g31
sS'grecia maria de jesus sanchez hernandez'
p2564
g13
sS'christian alfonso arroyo gonzalez'
p2565
g2
sS'juana araceli cardenas sanchez'
p2566
g52
sS'erika dayanara angel bermudez'
p2567
g11
sS'maria geraldine ponce mendez'
p2568
g4
sS'mariela maribel lara reynoso'
p2569
g25
sS'denise perez dominguez'
p2570
g25
sS'karla patricia fonseca veliz'
p2571
g25
sS'eduardo oliver montesantos'
p2572
g25
sS'ricardo araon aguilar gordillo'
p2573
g31
sS'camilo alfonso elias cruz'
p2574
g52
sS'rosalba pineda ramirez'
p2575
g16
sS'alejandra viridiana rodriguez garnica'
p2576
g6
sS'raul arturo gonzalez renero'
p2577
g25
sS'jose villar hernandez'
p2578
g19
sS'rosalba lopez regalado'
p2579
g9
sS'elizabeth villanueva simon'
p2580
g11
sS'laura imelda perez segura'
p2581
g4
sS'yolanda isabel bolon herrada'
p2582
g9
sS'abel garcia mendoza'
p2583
g11
sS'mario alberto orozco bedolla'
p2584
g25
sS'ricardo janecarlo lozano reynoso'
p2585
g9
sS'jose luis juarez molina'
p2586
g11
sS'luis javier alegre salazar'
p2587
g37
sS'maria asuncion caballero may'
p2588
g6
sS'armando reyes ledesma'
p2589
g4
sS'mario alberto alias velazquez'
p2590
g31
sS'mayra guadalupe vazquez bautista'
p2591
g11
sS'luis enrique torres lopez'
p2592
g52
sS'francisco osorno soberon'
p2593
g16
sS'leticia diaz aguilar'
p2594
g37
sS'copitzi yesenia hernandez garcia'
p2595
g19
sS'sergio diego cisneros p\xc3\x89rez'
p2596
g11
sS'juana maria deyanira seturino alcala'
p2597
g52
sS'francisco javier de la torre delgado'
p2598
g11
sS'jose manuel ballesteros lopez'
p2599
g9
sS'claudia pastor badilla'
p2600
g19
sS'miguel hernandez anaya'
p2601
g19
sS'abigail rizo de la torre'
p2602
g2
sS'leticia mariana gomez ordaz'
p2603
g25
sS'abel jesus leyva gandarillas'
p2604
g13
sS'juan jose jover navarro'
p2605
g9
sS'delia gonzalez rivera'
p2606
g52
sS'manuel lopez castillo'
p2607
g37
sS'diana lucia quintero carrillo'
p2608
g52
sS'raquel cesaretti salazar'
p2609
g11
sS'leonardo salazar galaz'
p2610
g6
sS'fortunato rivera castillo'
p2611
g37
sS'israel mendoza vazquez'
p2612
g4
sS'jose alfredo felipe lopez'
p2613
g11
sS'abigail edith flores alvarez'
p2614
g25
sS'roberto gutierrez lopez'
p2615
g25
sS'obilfrido gomez alvarez'
p2616
g35
sS'andrea gabriela olvera valentin'
p2617
g11
sS'maria patricia bernal monta\xc3\x91o'
p2618
g2
sS'javier vivian bernal'
p2619
g25
sS'abril alcala padilla'
p2620
g9
sS'jose gaudencio victor leon casta\xc3\x91eda'
p2621
g9
sS'nereida vasquez oyervides'
p2622
g11
sS'hernan salinas wolberg'
p2623
g6
sS'merary villegas sanchez'
p2624
g4
sS'rodrigo calderon salas'
p2625
g4
sS'j jesus ineyra rios'
p2626
g52
sS'ana karina de la torre cruz'
p2627
g52
sS'alejandro carvajal hidalgo'
p2628
g4
sS'francisco rodriguez lara'
p2629
g52
sS'lazaro rodriguez perez'
p2630
g11
sS'jorge fouad aguilar chedraui'
p2631
g9
sS'maria fernanda bautista lopez'
p2632
g25
sS'melba nelia farias zambrano'
p2633
g4
sS'alejandro barroso chavez'
p2634
g4
sS'pablo ricardo monta\xc3\x91o beckmann'
p2635
g35
sS'sonia areli sanchez checa'
p2636
g13
sS'antonio acu\xc3\x91a millan'
p2637
g2
sS'dulce alejandra garcia morlan'
p2638
g6
sS'juan manuel martinez aleman'
p2639
g52
sS'francisca flores escamilla'
p2640
g13
sS'alma ruth inocencio reyes'
p2641
g25
sS'araceli salmoran sanchez'
p2642
g25
sS'hilda aracelia ramirez'
p2643
g52
sS'raul alvarez ballesteros'
p2644
g31
sS'luisa maria urzua garcia'
p2645
g25
sS'gregoria perez perez'
p2646
g52
sS'miriam carranza trinidad'
p2647
g9
sS'dibanhi araceli diaz de la cerda'
p2648
g19
sS'oscar alberto orozco esparza'
p2649
g25
sS'maria de jesus rosete sanchez'
p2650
g4
sS'luis gustavo galvan arratia'
p2651
g31
sS'oscar alberto cantu garcia'
p2652
g19
sS'omar navarrete nu\xc3\x91ez'
p2653
g13
sS'anahi nava fuertes'
p2654
g13
sS'gustavo aviles ceron'
p2655
g13
sS'karina ivanova bello elenes'
p2656
g31
sS'dulce maria arias ataide'
p2657
g13
sS'eymar javier gutierrez ramirez'
p2658
g13
sS'jose andres picasso sanchez'
p2659
g25
sS'ruben carlos camara caballero'
p2660
g52
sS'zoila elena solis hernandez'
p2661
g19
sS'dulce karime miranda perez'
p2662
g52
sS'aylin del carmen pacheco cruz'
p2663
g11
sS'enrique lopez arau'
p2664
g11
sS'gerardo daniel salinas jaimes'
p2665
g25
sS'ivonne cadena leyte'
p2666
g25
sS'norma selideth alcala baez'
p2667
g11
sS'jos\xc3\x89 rigoberto mares aguilar'
p2668
g6
sS'jesus antonio cruz arjona'
p2669
g19
sS'martha patricia garcia lopez'
p2670
g11
sS'maria de los angeles garfias lopez'
p2671
g6
sS'pedro pablo trevi\xc3\x91o villarreal'
p2672
g19
sS'yolanda elena tovar ortega'
p2673
g11
sS'joel torres gonzalez'
p2674
g52
sS'reyna adriana bernal leal'
p2675
g11
sS'denisse amanda machorro garzon'
p2676
g6
sS'rosa maria cienega vargas'
p2677
g11
sS'hayde anali gaytan reyes'
p2678
g25
sS'alejandro cano alcala'
p2679
g9
sS'irene carolina tirado casta\xc3\x91eda'
p2680
g52
sS'mar\xc3\x8da del rosario rodr\xc3\x8dguez aguilar'
p2681
g11
sS'luis angel xariel espinosa chazaro'
p2682
g13
sS'edgar adrian hernandez marquez'
p2683
g9
sS'trinidad perez torres'
p2684
g6
sS'olga lydia bichir duran'
p2685
g25
sS'maria roselia jimenez perez'
p2686
g4
sS'amancio martin ramirez sandoval'
p2687
g11
sS'leticia esmerio rivera'
p2688
g6
sS'maria sol arroniz de la huerta'
p2689
g9
sS'christian arturo yescas blancas'
p2690
g25
sS'julio cesar bello merida'
p2691
g52
sS'ma eugenia alvarado sanchez'
p2692
g11
sS'myrna fabiola valdivia lopez'
p2693
g6
sS'nayeli avila madriz'
p2694
g19
sS'erik emilio grimaldo hernandez'
p2695
g19
sS'oscar rafael novella macias'
p2696
g37
sS'alfieri vildosola silva'
p2697
g2
sS'alfonso esparza hernandez'
p2698
g31
sS'david homero palafox celaya'
p2699
g16
sS'korynna helen cabral franco'
p2700
g25
sS'maria de la luz gonzalez rojano'
p2701
g25
sS'francisco javier fernandez clamont'
p2702
g16
sS'jesus andres perez recio'
p2703
g6
sS'guadalupe alegria jimenez'
p2704
g52
sS'maria del carmen pe\xc3\x91a dorado'
p2705
g6
sS'federico emmanuel sanchez flores'
p2706
g13
sS'eydi abigail lopez flores'
p2707
g11
sS'natanael cuervo meza'
p2708
g52
sS'jose vidal jimenez ramirez'
p2709
g9
sS'liliana cecilia lugo slim'
p2710
g11
sS'ma concepcion padilla larios'
p2711
g52
sS'alfonso primitivo rios vazquez'
p2712
g52
sS'marina del pilar avila olmeda'
p2713
g4
sS'carlynn houghton hernandez'
p2714
g31
sS'antonio hernandez y castro'
p2715
g19
sS'jacobina velazquez izquierdo'
p2716
g52
sS'carlos valentin galicia jimenez'
p2717
g6
sS'evaristo lenin p\xc3\x89rez rivera'
p2718
g6
sS'norma estela pimentel m\xc3\x89ndez'
p2719
g25
sS'elizabeth figueroa hurtado'
p2720
g2
sS'aristides de jesus quintero rosas'
p2721
g31
sS'sonia daniela lazarin garcia'
p2722
g6
sS'jesus fernando garcia hernandez'
p2723
g4
sS'mario jesus pe\xc3\x91a garza'
p2724
g19
sS'jose isabel trejo reyes'
p2725
g6
sS'irma olivia gomez contreras'
p2726
g25
sS'erik alejandro ojeda novelo'
p2727
g19
sS'petra barrera barrera'
p2728
g19
sS'clara cardenas galvan'
p2729
g4
sS'david bahena cuevas'
p2730
g2
sS'arcelia galarza villarino'
p2731
g11
sS'maria wendy brice\xc3\x91o zuloaga'
p2732
g4
sS'amel coello contreras'
p2733
g11
sS'luis alfonso torres llanes'
p2734
g9
sS'fidel alejandro hernandez mendoza'
p2735
g19
sS'jose antonio lopez balcazar'
p2736
g25
sS'alonso rangel reguera'
p2737
g11
sS'maria guillermina alvarado moreno'
p2738
g4
sS'sara elizabeth villamar torres'
p2739
g11
sS'lidia felisa lopez aguirre'
p2740
g19
sS'manuel humberto santos cuituny'
p2741
g9
sS'arturo esquivel nu\xc3\x91ez'
p2742
g25
sS'guadalupe jasmin rojas jasso'
p2743
g9
sS'jose alberto guerrero martinez'
p2744
g52
sS'manuel de la toba castro'
p2745
g31
sS'ricardo de la pe\xc3\x91a marshall'
p2746
g4
sS'laura teresa de jesus loza gonzalez'
p2747
g2
sS'raul augusto silva vela'
p2748
g9
sS'jose saucedo hurtado'
p2749
g52
sS'sergio perez hernandez'
p2750
g37
sS'silem garcia pe\xc3\x91a'
p2751
g2
sS'karen michel gonzalez marquez'
p2752
g9
sS'marlene trujillo perez'
p2753
g11
sS'pedro hernandez jimenez'
p2754
g37
sS'miguel fernando olachea castro'
p2755
g6
sS'julieta velazquez sanchez'
p2756
g13
sS'miguel de jesus hernandez'
p2757
g9
sS'mariano gonzalez aguirre'
p2758
g16
sS'citlalli navarro del rosario'
p2759
g4
sS'gustavo contreras montes'
p2760
g4
sS'marco polo santillan cassian'
p2761
g13
sS'nohemi aleman hernandez'
p2762
g6
sS'jose arturo carde\xc3\x91a cruz'
p2763
g6
sS'jimena berthely durruty'
p2764
g2
sS'monica nayeli arcadia delgado'
p2765
g2
sS'estela nu\xc3\x91ez alvarez'
p2766
g4
sS'lilia guadalupe merodio reza'
p2767
g19
sS'ana patricia peralta de la pe\xc3\x91a'
p2768
g25
sS'rosalio zanatta vidaurri'
p2769
g9
sS'javier alejandro gomez vidal'
p2770
g2
sS'carlos ivan guevara romero'
p2771
g9
sS'maria de los angeles de angel ramirez'
p2772
g11
sS'maria victoria navarro murillo'
p2773
g13
sS'fernando galindo favela'
p2774
g19
sS'daniel verdugo torres'
p2775
g19
sS'jose manuel villarreal longoria'
p2776
g25
sS'janet paloma estefania ayala'
p2777
g13
sS'maria del carmen tamariz pimentel'
p2778
g2
sS'irma guadalupe galicia lopez'
p2779
g19
sS'laura ines rangel huerta'
p2780
g6
sS'rosario guadalupe chavez valles'
p2781
g4
sS'daniel altafi valladares'
p2782
g35
sS'jesus salvador minor mora'
p2783
g4
sS'cesar fernando garcia aguilera'
p2784
g19
sS'amelia araiza davila'
p2785
g4
sS'gloria maria zorrosa montiel'
p2786
g25
sS'sarai reyes blanco'
p2787
g11
sS'juan carlos cantero nu\xc3\x91ez'
p2788
g11
sS'cesar octavio rojas rodriguez'
p2789
g11
sS'karla yuritzi almaz\xc3\x81n burgos'
p2790
g4
sS'veronica perez herrera'
p2791
g6
sS'laura monica olivarez celis'
p2792
g2
sS'prospero ramirez madrigal'
p2793
g11
sS'oscar emmanuel galindo orozco'
p2794
g25
sS'cinthya guadalupe flores marin'
p2795
g25
sS'juan ernesto millan pietsch'
p2796
g16
sS'graciela zavaleta sanchez'
p2797
g37
sS'viancca lizbeth barreto gonzalez'
p2798
g19
sS'manuel de jesus baldenebro arredondo'
p2799
g31
sS'miriam pilar liborio hernandez'
p2800
g16
sS'susana ruiz jimenez'
p2801
g52
sS'alejandra serra castellanos'
p2802
g25
sS'lorenzo daniel ludlow kuri'
p2803
g9
sS'gregorio gerardo perales castro'
p2804
g25
sS'jose guadalupe aguilera rojas'
p2805
g9
sS'miroslava carrillo martinez'
p2806
g4
sS'ramiro varela espinoza'
p2807
g52
sS'cecilia anunciacion patron laviada'
p2808
g6
sS'susana beatriz cuaxiloa serrano'
p2809
g37
sS'america marbella de la rosa de la cruz'
p2810
g52
sS'yasmin flores zarraga'
p2811
g2
sS'maria guadalupe leal rodriguez'
p2812
g6
sS'jos\xc3\x89 ricardo delsol estrada'
p2813
g4
sS'emmanuel reyes carmona'
p2814
g13
sS'everardo jose de la o martinez'
p2815
g11
sS'agustin pastor guzman'
p2816
g13
sS'hector serrano cortes'
p2817
g13
sS'fernanda hernandez fernandez'
p2818
g2
sS'gregorio gomez martinez'
p2819
g9
sS'coral almanza moreno'
p2820
g6
sS'citlali jaramillo ramirez'
p2821
g16
sS'selene gomez barragan'
p2822
g19
sS'araceli corona torres'
p2823
g52
sS'juli\xc3\x81n gonz\xc3\x81lez espinosa'
p2824
g25
sS'laura barrera fortoul'
p2825
g19
sS'arturo rios navarrete'
p2826
g52
sS'juan antonio gutierrez garza'
p2827
g11
sS'israel margarito castro alpizar'
p2828
g25
sS'pablo guillermo angulo brice\xc3\x91o'
p2829
g19
sS'sayonara vargas rodriguez'
p2830
g16
sS'elvia maria gasca sauz'
p2831
g13
sS'emmanuel sanchez palacios'
p2832
g11
sS'alondra maribell herrera pavon'
p2833
g19
sS'benjamin cedillo casta\xc3\x91eda'
p2834
g25
sS'miguel cervantes reyes'
p2835
g25
sS'dorheny garcia cayetano'
p2836
g37
sS'rocio barrera badillo'
p2837
g4
sS'maria beatriz lopez chavez'
p2838
g37
sS'manuel rodriguez gonzalez'
p2839
g4
sS'irving daniel villase\xc3\x83\xc2\x91or aguirre'
p2840
g11
sS'david ivan castro zuppa'
p2841
g25
sS'david alfonso bedartes rodriguez'
p2842
g31
sS'luis javier mendoza valdez'
p2843
g9
sS'adolfo rojo montoya'
p2844
g9
sS'gissel belinda chim dzib'
p2845
g6
sS'ma arisbeth garcia monjaras'
p2846
g4
sS'monica morales zu\xc3\x91iga'
p2847
g19
sS'guadalupe soto ramirez'
p2848
g9
sS'veronica garcia reyes'
p2849
g9
sS'erasmo gonzalez robledo'
p2850
g4
sS'venancio luis sanchez jimenez'
p2851
g9
sS'ruben teran aguila'
p2852
g4
sS'martha patricia ramirez lucero'
p2853
g37
sS'cristian rodrigo zavala servin'
p2854
g13
sS'patricia salome escobar flores'
p2855
g31
sS'leticia arlett aguilar molina'
p2856
g4
sS'juan mendoza reyes'
p2857
g9
sS'alejandro lopez villanueva'
p2858
g9
sS'jose roberto arenas martinez'
p2859
g19
sS'geronimo color gasca'
p2860
g19
sS'alma angelica quiles martinez'
p2861
g16
sS'jose ignacio tadeo sigala sandoval'
p2862
g31
sS'maria alba cornejo garcia'
p2863
g11
sS'manuel garcia farias'
p2864
g25
sS'erika esther torres silva'
p2865
g11
sS'norma azucena rodriguez zamora'
p2866
g13
sS'rafael fararoni mortera'
p2867
g9
sS'mar\xc3\x8da elizabeth d\xc3\x8daz garcia'
p2868
g4
sS'felix manuel carballo collins'
p2869
g6
sS'osmer regalado peregrino'
p2870
g2
sS'frida alejandra esparza marquez'
p2871
g13
sS'brenda alipio mendoza'
p2872
g25
sS'teresa cortes pancoatl'
p2873
g13
sS'margarita flores sanchez'
p2874
g19
sS'tomas lopez landero'
p2875
g25
sS'marlen medina fernandez'
p2876
g9
sS'rafael hernandez villalpando'
p2877
g4
sS'armando gardu\xc3\x91o reyes'
p2878
g25
sS'jeronimo morales olivares'
p2879
g4
sS'paul alfonso lopez de santa anna baeza'
p2880
g35
sS'asbel mojica limon'
p2881
g19
sS'rebeca peralta leon'
p2882
g9
sS'raul arturo ramirez ramirez'
p2883
g2
sS'alejandro ponce cobos'
p2884
g37
sS'hugo jesus mendoza estrada'
p2885
g19
sS'andrea isabel carrillo garcia'
p2886
g6
sS'genny marlene barcelo y carvajal'
p2887
g2
sS'daniel santos rodriguez'
p2888
g13
s.