(dp0
S'sandro salda\xc3\x91a hernandez'
p1
S'prd'
p2
sS'karla andrea rojas navarrete'
p3
S'morena'
p4
sS'gustavo suarez suarez'
p5
S'pan'
p6
sS'mario alberto hern\xc3\x81ndez corona'
p7
S'panal'
p8
sS'juan nicolas callejas roldan'
p9
S'pri-pvem-panal'
p10
sS'maria jose rodriguez hernandez'
p11
g8
sS'maria claudia esqueda llanes'
p12
S'pri'
p13
sS'jose eduardo calzada rovirosa'
p14
g13
sS'fernando moreno pe\xc3\x91a'
p15
g10
sS'mar\xc3\x8da monserrat calleros zatarain'
p16
S'pvem'
p17
sS'edgar leonel herrera rubio'
p18
g8
sS'sylvia trevi\xc3\x91o salinas'
p19
S'pan-prd-mc'
p20
sS'hilda graciela santana turrubiates'
p21
g8
sS'elvia esther contreras ricalde'
p22
g8
sS'rosmilda salinas castilla'
p23
S'morena-pt-pes'
p24
sS'irais maria vazquez aguiar'
p25
g20
sS'genesis acela salinas benitez'
p26
g2
sS'alberto murguia orozco'
p27
g13
sS'arturo mu\xc3\x91oz burgos'
p28
g17
sS'hugo contreras zepeda'
p29
g13
sS'wilber vazquez alegria'
p30
g17
sS'jaime bonilla valdez'
p31
g24
sS'luz argelia paniagua figueroa'
p32
g6
sS'jose ruben escajeda jimenez'
p33
g13
sS'agustin hernandez rojo'
p34
g6
sS'susana rodriguez troncoso'
p35
g17
sS'martha adriana duran espinoza'
p36
g20
sS'jorge alberto angulo garcia'
p37
S'mc'
p38
sS'nadia jacqueline cabrera lomeli'
p39
g38
sS'tomasa tonche chavez'
p40
S'pes'
p41
sS'yolanda sanchez guzman'
p42
g41
sS'alejandro bustamante hernandez'
p43
S'pt'
p44
sS'nadia sanchez espinoza'
p45
g17
sS'patricio edgar king lopez'
p46
g17
sS'miriam vazquez cruz'
p47
g17
sS'jose raymundo mejia hernandez'
p48
g2
sS'candelario perez alvarado'
p49
g4
sS'juan qui\xc3\x91onez ruiz'
p50
g20
sS'rogelio marquez valdivia'
p51
g24
sS'martha beatriz asid gaytan'
p52
g4
sS'dante alfonso delgado rannauro'
p53
g38
sS'ricardo calvo huerta'
p54
g2
sS'faridh concepcion nieblas barrantes'
p55
g6
sS'veronica delgadillo garcia'
p56
g38
sS'nestora salgado garc\xc3\x8da'
p57
g4
sS'miguel angel abadia pardo'
p58
g6
sS'teresa de jesus pech patron'
p59
g17
sS'karina dolores garza cisneros'
p60
g6
sS'santa agustina aguilar castillo'
p61
g4
sS'carlos manuel esquer galaviz'
p62
g8
sS'magaly fregoso ortiz'
p63
g38
sS'silverio asariel cruz p\xc3\x89rez'
p64
g17
sS'alma perez xochipa'
p65
S'indep'
p66
sS'lorenza garcia garcia'
p67
g17
sS'marco antonio ortegon ibarra'
p68
g44
sS'veronica noemi camino farjat'
p69
g10
sS'mario alberto zubieta lopez'
p70
g38
sS'irma yolanda lopez velazquez'
p71
g38
sS'norma araceli aranguren rosique chery aranguren'
p72
g17
sS'daniel ordo\xc3\x91ez hernandez'
p73
g2
sS'roberto alejandro allende trejo'
p74
g13
sS'maricela oregel castillo'
p75
g17
sS'hugo alberto rodriguez murray'
p76
g4
sS'maria guadalupe martinez diaz'
p77
g8
sS'manuel rudecindo garcia fonseca'
p78
g6
sS'hector fernando sanchez villalvazo'
p79
g44
sS'yazmin andrea ramirez garcia'
p80
g6
sS'ma. veronica zarate sanchez'
p81
g41
sS'yolanda preciado candelario'
p82
g17
sS'juan jesus rivera villegas'
p83
g17
sS'marco antonio vazquez gonzalez'
p84
g44
sS'daniela lorena tamayo espindola'
p85
g17
sS'karen anahi canul cetzal'
p86
g6
sS'marco antonio martinez guerrero'
p87
g6
sS'imelda margarita sanmiguel sanchez'
p88
g20
sS'francisco miranda hurtado'
p89
g41
sS'esteban ruiz macario'
p90
g17
sS'rigoberto vargas cervantes'
p91
g8
sS'graciela soledad pereyra sanchez'
p92
g17
sS'nancy romero rivera'
p93
g66
sS'liliana ramirez hernandez'
p94
g17
sS'hortensia aragon castillo'
p95
g2
sS'manuel andrade diaz'
p96
g13
sS'eruviel avila villegas'
p97
g13
sS'rubi andrea uvalle galaz'
p98
g2
sS'ana rosa payan cervera'
p99
g20
sS'laura aurora estrada cuellar'
p100
g4
sS'adriana noemi ortiz ortega'
p101
g2
sS'mar\xc3\x8da del rosario lizarraga sanchez chayito lizarraga'
p102
g8
sS'maria del carmen ventura acosta'
p103
g2
sS'greta esteofenes ventura lemus'
p104
g10
sS'imelda garcia ugalde'
p105
g17
sS'kenia lopez rabadan'
p106
g6
sS'sandra elizabeth alonso gutierrez'
p107
g24
sS'marcos santana montes'
p108
g41
sS'michelle lorenia valenzuela nevarez'
p109
g20
sS'joel de la rosa alvarado'
p110
g44
sS'lizeth anali velazquez luna'
p111
g17
sS'tomas lopez gonzalez'
p112
g13
sS'ovidio salvador peralta suarez'
p113
g24
sS'silvia luna rodriguez'
p114
g8
sS'aline romero romero'
p115
g2
sS'alma carolina viggiano austria'
p116
g13
sS'prospero manuel ibarra otero'
p117
g10
sS'bertha alicia caraveo camarena'
p118
g24
sS'raul paz alonzo'
p119
g20
sS'andiyoel trinidad lopez'
p120
g44
sS'diana azucena beltran diarte'
p121
g8
sS'jose luis de anda ramirez'
p122
g4
sS'nelida montero castillo'
p123
g13
sS'isaac ocampo vega'
p124
g41
sS'blanca estela pi\xc3\x91a gudi\xc3\x91o'
p125
g4
sS'manuel jesus avila galindo'
p126
g13
sS'ana bertha vidal focil'
p127
g20
sS'ana maria montes camacho'
p128
g17
sS'ernesto luque hudson'
p129
g13
sS'gerardo andres herrera perez'
p130
g17
sS'jesus andrei cruz anaya'
p131
g13
sS'sandra gonzalez de yta'
p132
g24
sS'ofelia patricia flores carrillo'
p133
g17
sS'ruben rocha moya'
p134
g24
sS'tanya carola viveros chazaro'
p135
g4
sS'ana lilia rivera rivera'
p136
g24
sS'roberto aravedo ramos'
p137
g2
sS'edna luz guerrero hernandez'
p138
g41
sS'claudia angelica ramirez ramos'
p139
g66
sS'rosa eugenia rodriguez lopez'
p140
g24
sS'araceli angeles moraila martinez'
p141
g8
sS'diego rosique leon'
p142
g13
sS'sergio agustin morales anguiano'
p143
g10
sS'maria de jesus chavez contreras mary chavez'
p144
g20
sS'jose ramon enriquez herrera'
p145
g20
sS'edith anabel alvarado varela'
p146
g10
sS'sergio tostado luna'
p147
g41
sS'gilberto herrera solorzano'
p148
g24
sS'sylvana beltrones sanchez'
p149
g10
sS'ifigenia martha martinez y hernandez'
p150
g4
sS'guillermo vazquez flores'
p151
g2
sS'claudia anaya vazquez'
p152
g20
sS'delfino rodrigo martinez garcia'
p153
g17
sS'americo villarreal anaya'
p154
g24
sS'eduardo guia velazquez'
p155
g24
sS'gildardo lopez hernandez'
p156
g6
sS'melva egleyde solis guiterrez'
p157
g17
sS'victor manuel osorio lizama'
p158
g44
sS'abdies pineda morin'
p159
g41
sS'samuel alejandro garcia sepulveda'
p160
g38
sS'paulina alejandra del moral vela'
p161
g10
sS'maria del refugio cisneros rodriguez'
p162
g41
sS'mayra aracely guevara salgado'
p163
g66
sS'maritza lopez garcia'
p164
g8
sS'alfonso herrera garcia'
p165
g8
sS'claudia edith anaya mota'
p166
g10
sS'jorge alonso castillo rodr\xc3\x8dguez'
p167
g17
sS'erick alejandro perez valero'
p168
g17
sS'pedro antonio carbajal teran'
p169
g38
sS'juan carlos lastiri quiros'
p170
g13
sS'claudia gonzalez elizondo'
p171
g13
sS'cesar fabricio george chavez'
p172
g17
sS'pascual flores miranda'
p173
g2
sS'francisco guzman ortiz'
p174
g13
sS'javier na\xc3\x91ez pro'
p175
g66
sS'alejandro isaac garma s\xc3\x81nchez'
p176
g17
sS'armando rangel hernandez'
p177
g20
sS'susana harp iturribarria'
p178
g24
sS'omar holguin franco'
p179
g4
sS'adela morales cruz'
p180
g4
sS'adalid martinez gomez'
p181
g44
sS'adilene angulo gastelum'
p182
g17
sS'tomas soto mitre'
p183
g41
sS'reina castro longoria'
p184
g24
sS'ana teresa paniagua garcia'
p185
g20
sS'lorenzo ricardo garcia de leon coria'
p186
g66
sS'jorge alejandro rodriguez montes'
p187
g8
sS'alexandra pedroza correa'
p188
g8
sS'cruz perez cuellar'
p189
g24
sS'elizabeth rivera flores'
p190
g2
sS'dora maria guadalupe talamante lemas'
p191
g8
sS'rafael espino de la pe\xc3\x91a'
p192
g24
sS'dulce aurora casanova uc'
p193
g41
sS'nuvia magdalena mayorga delgado'
p194
g10
sS'miriam josefina ayon castro'
p195
g13
sS'jose martin mejia soria'
p196
g13
sS'fernando de jesus barajas doctor'
p197
g38
sS'alejandro marroquin basave'
p198
g38
sS'isis stephanie hernandez reyes'
p199
g38
sS'ana maria contreras ruiz'
p200
g24
sS'juan alberto federico valdivia alvarado'
p201
g13
sS'manuel narvaez navarro'
p202
g13
sS'gustavo adolfo granados corzo'
p203
g13
sS'cecilia velazquez sanchez'
p204
g44
sS'maximo jimenez ramirez max'
p205
g44
sS'andrea viridiana rostro olvera'
p206
g13
sS'manuel jesus clouthier carrillo'
p207
g66
sS'olinalzin tabitha garcia rodriguez'
p208
g4
sS'carmina monserrath de avila rodriguez'
p209
g6
sS'mitzi aviles osuna'
p210
g38
sS'guadalupe acosta naranjo'
p211
g20
sS'lizbet martinez ramirez'
p212
g44
sS'joselen hammor perales espinosa'
p213
g8
sS'daniel adolfo ruiz felix'
p214
g44
sS'ruth alvarado estrada'
p215
g17
sS'margarito ramirez garcia'
p216
g8
sS'alejandro gonzalez murillo alex gonzalez'
p217
g10
sS'cecilia margarita sanchez garcia'
p218
g24
sS'beatriz elena paredes rangel'
p219
g13
sS'alejandro gonzalez ya\xc3\x91ez gonzalo ya\xc3\x91ez'
p220
g24
sS'luis gerardo garza vazquez'
p221
g17
sS'victor oswaldo fuentes solis'
p222
g6
sS'ma. eleuteria flores rodriguez'
p223
g8
sS'guadalupe munguia aviles'
p224
g8
sS'maria estela dominguez reyes'
p225
g13
sS'ernesto alonso vidal rosique'
p226
g41
sS'nancy de la sierra aramburo'
p227
g24
sS'francisco javier martinez hernandez'
p228
g38
sS'irma patricia alamillo calvillo'
p229
g8
sS'enrique adiel acu\xc3\x91a arvallo'
p230
g44
sS'jose de jesus quintero hernandez'
p231
g2
sS'jose gerardo zavala procell'
p232
g13
sS'raul gonzalez rodriguez'
p233
g66
sS'jose francisco aguilar contreras'
p234
g6
sS'israel mu\xc3\x91oz mu\xc3\x91oz'
p235
g10
sS'maria de la luz rico rodriguez'
p236
g24
sS'victor manuel castro cosio'
p237
g24
sS'alejandra lagunes soto ru\xc3\x8dz'
p238
g17
sS'miguel angel lucero olivas'
p239
g24
sS'luis humberto ladino ochoa'
p240
g20
sS'lidia camacho camacho'
p241
g13
sS'maria guadalupe salda\xc3\x91a cisneros'
p242
g20
sS'jose luis pech varguez'
p243
g24
sS'norma anay s\xc3\x81nchez l\xc3\x93pez'
p244
g17
sS'cesar octavio camacho quiroz'
p245
g10
sS'irma beatriz macias camacho'
p246
g38
sS'higinio martinez miranda'
p247
g24
sS'karina yesenia manzo alvarez'
p248
g20
sS'juan francisco larios esparza'
p249
g20
sS'nikol carmen rodriguez de l\xc2\xb4orme'
p250
g38
sS'maria guadalupe graciela juarez garcia'
p251
g13
sS'francisco pelayo covarrubias'
p252
g20
sS'indira de jesus rosales san roman'
p253
g6
sS'florentino jorge isaac armenta rodriguez'
p254
g44
sS'alejandro chanona burguete'
p255
g38
sS'patricia flores elizondo'
p256
g20
sS'salomon jara cruz'
p257
g24
sS'leticia elizabeth cuesta madrigal lety cuesta'
p258
g20
sS'adriana guadalupe jurado valadez'
p259
g20
sS'delia chavez alba'
p260
g8
sS'julio ramon menchaca salazar'
p261
g4
sS'cristobal raul guerra reyes'
p262
g6
sS'benjamin koyima toyama montes'
p263
g2
sS'luz mireya franco hernandez'
p264
g10
sS'jorge antonio ya\xc3\x91ez mu\xc3\x91iz'
p265
g44
sS'rosalba rivera martinez'
p266
g44
sS'jacob cristino romero'
p267
g2
sS'german martinez cazares'
p268
g4
sS'maria isabel rodriguez jimenez'
p269
g24
sS'jose angel soto zu\xc3\x91iga'
p270
g8
sS'luis enrique salas ortega'
p271
g41
sS'jose alejandro aguila arguelles'
p272
g8
sS'solangel sedano fierro'
p273
g66
sS'olga alicia medina miranda'
p274
g44
sS'karla irina martinez de aguilar velasquez'
p275
g17
sS'claudia esther balderas espinoza'
p276
g4
sS'ma. guadalupe martinez vazquez'
p277
g24
sS'gabriela bernal resendiz'
p278
g10
sS'noemi susan gurrion scott'
p279
g20
sS'josue jaramillo burian'
p280
g38
sS'alberto reyes palacios'
p281
g17
sS'miguel alfredo hernandez pe\xc3\x91aflor'
p282
g6
sS'susana hurtado vallejo susy hurtado'
p283
g10
sS'marco antonio orozco carmona'
p284
g6
sS'carlos arroyo alzaga'
p285
g24
sS'luis d\xc3\x8daz quevedo'
p286
g17
sS'rigoberto rodriguez rangel'
p287
g41
sS'herminio fernando chanona perez'
p288
g38
sS'alejandra noemi reynoso sanchez ale wera reynoso'
p289
g20
sS'cristobal arias solis'
p290
g24
sS'nadia navarro acevedo'
p291
g20
sS'silvia guadalupe galaz ortega'
p292
g41
sS'ximena legarreta de la fuente'
p293
g17
sS'carmen beatriz aguileta cobos'
p294
g8
sS'maria soledad luevano cantu'
p295
g24
sS'hector enrique vasconcelos y cruz'
p296
g4
sS'heriberto manuel galindo qui\xc3\x91ones'
p297
g10
sS'juan carlos ortiz celaya'
p298
g41
sS'luisa ivone gallegos martinez'
p299
g10
sS'quemper samayoa sanchez'
p300
g44
sS'daniel leon perez'
p301
g2
sS'maria de lourdes marquez aguirre'
p302
g44
sS'francisco javier espinoza tapia'
p303
g41
sS'guadalupe salazar borja'
p304
g8
sS'maria josefina banda zerme\xc3\x91o'
p305
g24
sS'miguel angel quintanar gallegos'
p306
g2
sS'ricardo velazquez meza'
p307
g24
sS'jorge mendoza garza'
p308
g13
sS'gabriela karen zarate lopez'
p309
g2
sS'maria salome elyd saenz'
p310
g20
sS'zeferina del carmen marin martinez'
p311
g20
sS'jose ranulfo esquinca kobeh'
p312
g4
sS'hector melesio cuen ojeda'
p313
g20
sS'elias cervantes lezama'
p314
g8
sS'maria antonia cardenas mariscal'
p315
g24
sS'freyda marybel villegas canche'
p316
g4
sS'daniela garc\xc3\x8da trevi\xc3\x91o'
p317
g17
sS'roberto juan moya clemente'
p318
g6
sS'victor hugo pineda martinez'
p319
g17
sS'yolanda guadalupe valladares valle'
p320
g20
sS'carlos hugo carrillo preciado'
p321
g8
sS'miguel ernesto negrete de alba'
p322
g38
sS'mario alberto morales reynoso'
p323
g41
sS'yeni flores berruecos'
p324
g38
sS'olga lidia garcia ayala'
p325
g44
sS'marx aguirre ochoa'
p326
g17
sS'ana maria herrera guevara'
p327
g13
sS'sergio perez flores'
p328
g24
sS'anibal ostoa ortega'
p329
g4
sS'veronica perez perez'
p330
g44
sS'jesus milford rico ponce'
p331
g10
sS'ricardo ahued bardahuil'
p332
g24
sS'dora yajaira duran gomez'
p333
g38
sS'geovany tellez ponce'
p334
g13
sS'esmeralda vazquez palacios'
p335
g44
sS'miguel angel mancera espinosa'
p336
g6
sS'raul hurtado sanchez'
p337
g17
sS'jose francisco melo velazquez'
p338
g38
sS'evelyn anel ayala pino'
p339
g6
sS'pablo abner salazar mendiguchia'
p340
g66
sS'francisco zavala carmona'
p341
g38
sS'rodrigo mendez arriaga'
p342
g2
sS'laura lorena gonzalez garc\xc3\x8da'
p343
g17
sS'graciela carmina andrade garcia pelaez'
p344
g24
sS'rocio esmeralda reza gallegos'
p345
g20
sS'oleida perez rios'
p346
g2
sS'luis gerardo serrato castell'
p347
g6
sS'marco antonio gama basarte'
p348
g20
sS'fernando alberto garcia cuevas'
p349
g10
sS'jose antonio aguilar castillejos'
p350
g24
sS'erick agustin silva santos'
p351
g13
sS'napole\xc3\x93n g\xc3\x93mez urrutia'
p352
g4
sS'joanna alejandra vega biestro'
p353
g17
sS'maria teresa inguanzo gonzalez'
p354
g24
sS'nancy yael landa guerrero'
p355
g38
sS'monica fernandez balboa'
p356
g24
sS'patricia elide mendez mendez'
p357
g44
sS'rodolfo enrique gonzalez crespo'
p358
g20
sS'tomas enrique schwanke padilla'
p359
g8
sS'norma rocio nahle garcia'
p360
g24
sS'alfredo gutierrez tellez'
p361
g44
sS'gabriela del rosario santana duarte'
p362
g17
sS'enrique alejandro cerro lozano'
p363
g8
sS'carmen hernandez bielma'
p364
g66
sS'jocelyn joyce garcia corona'
p365
g2
sS'jose luis guijarro hernandez'
p366
g17
sS'leonel gustavo peiro del rio'
p367
g17
sS'erika hernandez de la cruz'
p368
g44
sS'manuel alejandro ju\xc3\x81rez aguirre'
p369
g17
sS'juan francisco de asis chavez solis'
p370
g8
sS'thelma cora garza salinas'
p371
g2
sS'alfredo cuauhtemoc mu\xc3\x91iz ortiz'
p372
g38
sS'noe rodriguez garcia'
p373
g8
sS'jose alvarez icaza longoria'
p374
g38
sS'luis antonio mahbub sarquis'
p375
g10
sS'maria rebeca teran guevara'
p376
g10
sS'eva eugenia galaz caletti eva galaz'
p377
g24
sS'ivon martinez ramirez'
p378
g8
sS'maria beatriz pages llergo rebollar'
p379
g13
sS'javier avila sanchez'
p380
g38
sS'jessica maria guadalupe ortega de la cruz'
p381
g38
sS'maria guadalupe soto nava'
p382
g17
sS'manuel jesus moreno zavala'
p383
g20
sS'pedro miguel haces barba'
p384
g4
sS'marcelino cisneros ramirez'
p385
g17
sS'luis roberto hurtado chavez'
p386
g38
sS'isidro villalba moreno'
p387
g8
sS'marco antonio gonz\xc3\x81lez viscarra'
p388
g17
sS'esther alonso mendoza'
p389
g8
sS'ana karen villalba lobaton'
p390
g41
sS'martha cecilia marquez alvarado'
p391
g20
sS'mario merito leon'
p392
g8
sS'claudia olvera cordero'
p393
g41
sS'daniel martinez martinez'
p394
g41
sS'jose espina von roehrich'
p395
g6
sS'damian zepeda vidales'
p396
g6
sS'jose jacques y medina'
p397
g4
sS'ricardo moreno bastida'
p398
g24
sS'hilda eugenia velazquez rodriguez'
p399
g10
sS'arturo del carmen moo cahuich'
p400
g24
sS'graciela argueta bello'
p401
g4
sS'leonor ceballos gonzalez'
p402
g17
sS'orestes eugenio perez cruz'
p403
g20
sS'sajidh sa\xc3\x9al magdaleno avil\xc3\x89z'
p404
g6
sS'lorena cruz gomez'
p405
g8
sS'marcos caballero mu\xc3\x91oz'
p406
g38
sS'emilio eliseo molina hernandez'
p407
g10
sS'alberto tlaxcalteco hernandez'
p408
g38
sS'jhonatan francisco castillo valle'
p409
g44
sS'roxana perez cantoran'
p410
g2
sS'julia echeverria martinez'
p411
g13
sS'maria eugenia guarneros ba\xc3\x91uelos'
p412
g2
sS'roberto pantoja arzola'
p413
g4
sS'gonzalo de jesus iba\xc3\x91ez avenda\xc3\x91o'
p414
g8
sS'maura hernandez fernandez'
p415
g20
sS'magaly itzel chazaro zamudio'
p416
g6
sS'cesar alberto quintero ugalde'
p417
g17
sS'liliana guillermina valenzuela ontiveros'
p418
g8
sS'luis ivan balderas colin'
p419
g6
sS'carlos manuel cicero rivera'
p420
g38
sS'diego alejandro cooper barrera'
p421
g8
sS'rosalinda cantu gonzalez'
p422
g24
sS'ana rosa lu carrillo'
p423
g13
sS'maria del carmen torres flores'
p424
g2
sS'julian javier ricalde maga\xc3\x91a'
p425
g20
sS'eduardo javier valencia juarez'
p426
g17
sS'juana laura perez floriano'
p427
g13
sS'javier casta\xc3\x91eda ibarra'
p428
g17
sS'alberto de la barreda hernandez'
p429
g6
sS'karolyn corzo ornelas'
p430
g66
sS'rocio adriana abreu arti\xc3\x91ano'
p431
g10
sS'benjamin king ristori'
p432
g8
sS'dalia selene mayorquin uribe'
p433
g10
sS'rafael hanzel celada castro'
p434
g41
sS'eduardo enrique ramos arceo'
p435
g20
sS'lia elizabeth carrillo perez'
p436
g8
sS'silverio lopez magallanes'
p437
g10
sS'maria eugenia gonzalez caballero'
p438
g4
sS'laura andrea tovar saavedra'
p439
g24
sS'juan manuel zepeda hernandez juan zepeda'
p440
g20
sS'maria magdalena sevilla serna'
p441
g38
sS'jose alejandro pe\xc3\x91a villa'
p442
g4
sS'carlos soto davila'
p443
g4
sS'ana julia ojeda manzanilla'
p444
g41
sS'luis alfonso leon ordo\xc3\x91ez'
p445
g41
sS'ezequiel campos velarde'
p446
g8
sS'araceli de la cruz gomez'
p447
g17
sS'jose jaime nu\xc3\x91ez murguia'
p448
g8
sS'rafael moreno valle rosas'
p449
g6
sS'nadia anaid godoy serrano'
p450
g8
sS'virginia luna olvera'
p451
g38
sS'jesus rigoberto mejia samaniego'
p452
g13
sS'maria guadalupe murguia gutierrez'
p453
g20
sS'carolina ciriaco belmont'
p454
g2
sS'rubi maribel cruz montenegro'
p455
g44
sS'sofia castro rios'
p456
g10
sS'ma isabel emma tejeida rivas'
p457
g13
sS'rafael torres garcia'
p458
g8
sS'carlos pe\xc3\x91afiel soto'
p459
g4
sS'gloria alicia aguire diaz'
p460
g8
sS'edith alejandra olvera melchor'
p461
g13
sS'alejandro moran rojo'
p462
g17
sS'jose alfredo botello montes'
p463
g20
sS'liliann krisstel garcia casta\xc3\x91eda'
p464
g41
sS'javier lopez zavala'
p465
g13
sS'juan manuel zepeda hernandez'
p466
g2
sS'octavio alejandro gamboa alva'
p467
g6
sS'ruben gonzalez cabrieles'
p468
g8
sS'martha rocio partida guzman'
p469
g13
sS'mario gerardo riestra pi\xc3\x91a'
p470
g20
sS'erick alan de la rosa garcia'
p471
g2
sS'alejandra rosas garcia'
p472
g6
sS'radames salazar solorio'
p473
g24
sS'daniel sepulveda arcega'
p474
g24
sS'josefina eugenia vazquez mota'
p475
g6
sS'juan manuel celis aguirre'
p476
g13
sS'alejandro armenta mier'
p477
g24
sS'anselmo rafael duarte santacruz'
p478
g8
sS'xochiquetzal edith alvarez mejia'
p479
g17
sS'carla denis collins'
p480
g6
sS'perla marisela woolrich fernandez'
p481
g20
sS'jacobo daniel hernandez alonso'
p482
g41
sS'imelda castro castro'
p483
g4
sS'herminio corral estrada'
p484
g6
sS'julio cesar ortiz regalado'
p485
g8
sS'maria del carmen duran arrambidez'
p486
g13
sS'mirtha rocio moreno aguilar'
p487
g38
sS'carlos martinez amador'
p488
g20
sS'veronica sada perez'
p489
g6
sS'jose alfredo ferreiro velazco'
p490
g41
sS'susana s\xc3\x81nchez sosa'
p491
g20
sS'luis eduardo lozano grajales'
p492
g10
sS'ma. del carmen medina arenas'
p493
g8
sS'celia maya garcia'
p494
g24
sS'jos\xc3\x89 erandi berm\xc3\x9adez m\xc3\x89ndez'
p495
g20
sS'eunice renata romo molina'
p496
g4
sS'ulises gonzalez garcia'
p497
g8
sS'martha guerrero sanchez'
p498
g24
sS'carlos alfredo olson san vicente'
p499
g20
sS'rodrigo gonzalez barrios'
p500
g20
sS'fernando jos\xc3\x89 barrera novelo'
p501
g17
sS'miguel calzada mercado'
p502
g13
sS'sandra patricia jimenez bautista'
p503
g44
sS'luis david ortiz salinas'
p504
g38
sS'hernan rivera cavazos'
p505
g17
sS'leonardo enrique martinez tellez'
p506
g44
sS'maria julia orta centeno'
p507
g17
sS'elidio pe\xc3\x91a delgado'
p508
g44
sS'jorge ramos hernandez'
p509
g20
sS'ruth aurelia pensamiento morales'
p510
g13
sS'elizabeth guadalupe arango santana'
p511
g8
sS'rodolfo gaspar echeagaray'
p512
g17
sS'rosaura magari\xc3\x91o hernandez'
p513
g41
sS'isaac martin vazquez camacho'
p514
g2
sS'juan antonio melendez ortega'
p515
g13
sS'abraham betanzos lopez'
p516
g8
sS'monica gutierrez damian'
p517
g8
sS'josefina rodarte ayala'
p518
g13
sS'lorenia beatriz mendez chavez'
p519
g6
sS'monica montero cuellar'
p520
g24
sS'denny giovani mendez perez'
p521
g13
sS'yahleel abdala carmona'
p522
g13
sS'primo dothe mata'
p523
g24
sS'yerico abramo masso'
p524
g10
sS'gaston hernandez hernandez'
p525
g8
sS'natalia sosa alamilla'
p526
g8
sS'rogelio alberto gomez hermosillo marin'
p527
g20
sS'mercedes del carmen guillen vicente'
p528
g13
sS'jose montiel sanchez'
p529
g41
sS'jesus cuauhtemoc velasco oliva'
p530
g38
sS'eliezer morales montes de oca'
p531
g8
sS'martha elena arias gonzalez'
p532
g4
sS'carolina charbel montesinos mendoza'
p533
g13
sS'jose angel hernandez puente'
p534
g4
sS'ernesto alarcon trujillo'
p535
g10
sS'maria merced gonzalez gonzalez'
p536
g4
sS'enriqueta lopez bustos'
p537
g8
sS'erika del rocio corpus escobedo'
p538
g4
sS'domingo limones zu\xc3\x91iga'
p539
g24
sS'alejandro gonzalo flores pereyda'
p540
g2
sS'jorge angel gonzalez apodaca'
p541
g13
sS'lorena cruz sanchez'
p542
g13
sS'jes\xc3\x9as sesma su\xc3\x81rez'
p543
g17
sS'justa gomez hernandez'
p544
g44
sS'antonio francisco astiazaran gutierrez'
p545
g20
sS'ramon ernesto gallardo lopez'
p546
g8
sS'jose refugio salazar meza'
p547
g8
sS'hector airam velazquez martinez'
p548
g8
sS'jose encarnacion alfaro cazares'
p549
g13
sS'salvador avila agui\xc3\x91aga'
p550
g8
sS'angela alvarado reyes'
p551
g44
sS'alma rebeca martinez gutierrez'
p552
g6
sS'marcela luque rangel'
p553
g38
sS'omar victor cuesta perez'
p554
g13
sS'diana estefania gutierrez valtierra'
p555
g6
sS'francisco ramon castillo ojeda'
p556
g44
sS'jose luis maldonado castorena'
p557
g13
sS'joel padilla pe\xc3\x91a'
p558
g24
sS'alejandra del carmen leon gastelum'
p559
g24
sS'sandra beatriz gonzalez perez'
p560
g8
sS'xitlalic ceja garcia'
p561
g13
sS'francisco escoboza pesta\xc3\x91o'
p562
g41
sS'geraldine gonzalez cervantes'
p563
g17
sS'carolina pe\xc3\x91aloza zarate'
p564
g4
sS'luis fabricio lopez barrera'
p565
g44
sS'cinthia del socorro quijano ojeda'
p566
g17
sS'jaime miguel casta\xc3\x91eda salas'
p567
g4
sS'casimiro mendez ortiz'
p568
g4
sS'adriana manzanilla fojaco'
p569
g24
sS'juan ignacio samperio monta\xc3\x91o'
p570
g38
sS'erika cortes martinez'
p571
g6
sS'maria eloisa talavera hernandez'
p572
g6
sS'hugo barrios sanchez'
p573
g2
sS'monica gonzalez villalba'
p574
g44
sS'ramon corral avila'
p575
g20
sS'francisco javier salazar saenz'
p576
g20
sS'javier garcia cordova'
p577
g38
sS'gabriel fernando montolla oseguera'
p578
g66
sS'luis alfredo cardenas martinez'
p579
g8
sS'hector fernando de la garza barroso'
p580
g4
sS'fernando salgado delgado'
p581
g13
sS'lidia molano castillo'
p582
g13
sS'jose angel mercado rosales'
p583
g13
sS'sergio ramirez ramirez'
p584
g2
sS'manuel a\xc3\x91orve ba\xc3\x91os'
p585
g10
sS'manuel talayero pariente'
p586
g17
sS'ana liliana rodriguez monta\xc3\x91o'
p587
g17
sS'maria guadalupe orona camacho'
p588
g8
sS'jose de jesus zambrano grijalva'
p589
g2
sS'mauricio kuri gonzalez'
p590
g20
sS'ana lorena castro iglesias'
p591
g6
sS'jesus lucia trasvi\xc3\x91a waldenrath'
p592
g24
sS'antonio nerio maltos'
p593
g10
sS'paat iridian sapien hinojoza'
p594
g17
sS'maria fernanda rivera sanchez fernanda rivera'
p595
g20
sS'manuel ignacio acosta gutierrez maloro'
p596
g10
sS'emma margarita aleman olvera'
p597
g6
sS'diego valente valera fuentes'
p598
g20
sS'martha maria rodriguez dominguez'
p599
g20
sS'daniel perez valdes'
p600
g13
sS'manuel del riego de los santos'
p601
g8
sS'blanca elizabeth parra perea'
p602
g38
sS'monica berenice sanchez cachu'
p603
g13
sS'jose zarate sanchez'
p604
g41
sS'jesus neri prieto huerta'
p605
g24
sS'pablo gamboa miner'
p606
g13
sS'jesus encinas meneses'
p607
g24
sS'jose javier villaca\xc3\x91a jimenez'
p608
g10
sS'felix andres aceves bravo'
p609
g41
sS'antonio garcia conejo'
p610
g20
sS'juan pablo adame aleman'
p611
g6
sS'esmeralda estrada perez'
p612
g8
sS'juan miguel castillo lara'
p613
g38
sS'santana armando guadiana tijerina'
p614
g24
sS'gloria trinidad luna ruiz'
p615
g6
sS'ma leonor noyola cervantes'
p616
g20
sS'miriam carolina rodriguez martinez'
p617
g44
sS'ismael garcia cabeza de vaca'
p618
g20
sS'karina rocio gonzalez luna'
p619
g4
sS'adriana sarur torre'
p620
g41
sS'norma ver\xc3\x93nica flores pablo'
p621
g8
sS'carlos humberto aceves del olmo'
p622
g13
sS'lucrecia vazquez de la rosa'
p623
g4
sS'maria del sagrario diaz granillo'
p624
g8
sS'samuel tabarez antunez'
p625
g2
sS'jessica maria guadalupe ortega de la cruz jessica ortega'
p626
g38
sS'mario machuca sanchez'
p627
g10
sS'yazmin de los angeles copete zapot'
p628
g20
sS'gina andrea cruz blakcledge'
p629
g20
sS'oscar alberto chavez garcia'
p630
g17
sS'jose ricardo lopez pescador'
p631
g13
sS'laura susana martinez cardenas'
p632
g20
sS'lida ruiz hernandez'
p633
g24
sS'lucia virginia meza guzman lucy meza guzman'
p634
g24
sS'jose guillermo anaya llamas'
p635
g20
sS'azalia aceneth guerra bocardo'
p636
g8
sS'cenobio eligio cruz ortiz'
p637
g2
sS'irem jansen bravo gonzalez'
p638
g44
sS'gricelda valencia de la mora'
p639
g24
sS'ana cristina paredes flores'
p640
g41
sS'daniela margarita escobar cota'
p641
g44
sS'edith garcia portocarrero'
p642
g2
sS'laura irais ballesteros mancilla'
p643
g2
sS'sandra luz rangel lomeli'
p644
g17
sS'dulce jacquelina huerta tellez'
p645
g8
sS'adolfo gomez hernandez'
p646
g24
sS'lilyana barajas rivas'
p647
g38
sS'liliana berenice arredondo lopez'
p648
g17
sS'jasmine maria bugarin rodriguez'
p649
g13
sS'beatriz mojica morga'
p650
g20
sS'julen rementeria del puerto'
p651
g20
sS'gabriel guadalupe gonzalez mayoral'
p652
g13
sS'edith beltran carrillo'
p653
g8
sS'reyes flores hurtado'
p654
g24
sS'jesus aurelio nava dector'
p655
g38
sS'ernesto castillo rosado'
p656
g13
sS'hector hugo roblero gordillo'
p657
g44
sS'guieshoba isabel rios santos'
p658
g17
sS'jose daniel diaz ruiz'
p659
g13
sS'gabriela lopez gomez'
p660
g24
sS'obed javier cruz perez'
p661
g66
sS'yolanda del socorro gonzalez barcelo'
p662
g17
sS'atanacio antonio lara vazquez'
p663
g44
sS'ruth cervantes arredondo'
p664
g41
sS'alejandra aldrete estala'
p665
g44
sS'jorge luis ochoa crespo'
p666
g38
sS'ana georgina zapata lucero'
p667
g13
sS'norma alicia carreto chalini'
p668
g8
sS'liliana pintor aguilar'
p669
g2
sS'marina emilia sanchez flores'
p670
g17
sS'ma. guadalupe covarrubias cervantes'
p671
g24
sS'rafael mu\xc3\x91oz gomez'
p672
g4
sS'maria del rocio corona nakamura'
p673
g13
sS'alvaro jose suarez garza alvaro suarez el 5x'
p674
g24
sS'maria patricia campos de la fuente'
p675
g17
sS'sara del carmen mexia arrieta'
p676
g6
sS'alma mireya gonzalez sanchez'
p677
g20
sS'katya izquierdo herrera'
p678
g8
sS'jose arturo ramirez alanis'
p679
g20
sS'juan fernando galicia cancino'
p680
g13
sS'maria elena figueroa smith'
p681
g20
sS'aida judith gandara tovar'
p682
g44
sS'estrella rojas loreto'
p683
g20
sS'jose alfonso pascual solorzano fraga'
p684
g24
sS'rebeca romero berruecos'
p685
g38
sS'leticia del carmen mendoza sanchez'
p686
g8
sS'blanca judith diaz delgado'
p687
g41
sS'alejandra jimenez gonzalez'
p688
g10
sS'monica gricelda garza candia'
p689
g66
sS'antares guadalupe vazquez alatorre'
p690
g4
sS'ana karen silva vargas'
p691
g8
sS'maria de la luz ramirez rodriguez'
p692
g20
sS'nayely ocampo torres'
p693
g13
sS'maria antonia contreras garcia'
p694
g44
sS'juana ruth hernandez zamura'
p695
g41
sS'marisol \xc3\x81lvarez p\xc3\x89rez'
p696
g17
sS'claudia del rosario aranda muela'
p697
g20
sS'cuauhtemoc becerra gonzalez'
p698
g24
sS'cesar lozano herrera'
p699
g17
sS'minerva citlalli hernandez mora'
p700
g24
sS'maria del carmen pinete vargas'
p701
g10
sS'angelica saucedo bosquez'
p702
g24
sS'jose roberto medina martinez'
p703
g2
sS'mario adolfo ramirez partida'
p704
g8
sS'luis felipe bravo mena'
p705
g6
sS'jose manuel mendez hinojosa'
p706
g13
sS'irma berenice maldonado juarez'
p707
g6
sS'miguel angel castillo castillo'
p708
g44
sS'joel molina ramirez'
p709
g24
sS'andres velazquez vazquez'
p710
g4
sS'esdrey narendra olivera becerril'
p711
g13
sS'eliseo barrera garcia'
p712
g44
sS'miguel ramirez sanchez'
p713
g8
sS'adalberto barragan meza'
p714
g8
sS'francisca olvera caballero'
p715
g20
sS'luis alberto brise\xc3\x91o morales'
p716
g38
sS'cesar arnulfo cravioto romero'
p717
g24
sS'nohemi veronica beraud osorio'
p718
g4
sS'diego armando vazquez albor'
p719
g8
sS'gabriela benavides cobos'
p720
g10
sS'laura elena fernandez caro'
p721
g38
sS'rodrigo negrete guzman'
p722
g41
sS'jose narro cespedes'
p723
g24
sS'omar obed maceda luna'
p724
g2
sS'minerva hernandez ramos'
p725
g20
sS'luis angel gutierrez perez'
p726
g8
sS'esther quintana salinas'
p727
g20
sS'arturo alberto jheman zetina'
p728
g17
sS'jorge enrique rivas zavala'
p729
g13
sS'ana maria guadalupe ancona rosas'
p730
g20
sS'maria del carmen tirapo guerrero'
p731
g10
sS'nelly elvira osorno gonzalez'
p732
g8
sS'ma. del socorro urquizu grajeda'
p733
g8
sS'miguel lezama delgado'
p734
g66
sS'teresita de la parra isla'
p735
g20
sS'xochitl gabriela ruiz gonzalez'
p736
g13
sS'maria lilly del carmen tellez garcia lilly tellez'
p737
g24
sS'miguel angel olachea pedrin'
p738
g13
sS'mirna isabel saldivar paz'
p739
g8
sS'manuel lara toledo'
p740
g4
sS'erendira valdez pi\xc3\x91a'
p741
g2
sS'myrna anzalmetti gutierrez'
p742
g17
sS'fernando marmolejo cervantes'
p743
g8
sS'claudia ruiz massieu salinas'
p744
g13
sS'yrma del carmen bocanegra broca'
p745
g13
sS'ernesto perez astorga'
p746
g24
sS'nahum navas ruiz'
p747
g41
sS'martin serrano garcia'
p748
g66
sS'brenda elizabeth herrera sauceda'
p749
g2
sS'christian mishel castro bello'
p750
g10
sS'barbara karime rivas mejia'
p751
g6
sS'ana bertha silva solorzano'
p752
g13
sS'oscar martin ramos salinas'
p753
g8
sS'maria eugenia guerra garza'
p754
g44
sS'roberto carlo loya ramirez'
p755
g8
sS'edgar saul cerna hernandez'
p756
g17
sS'marco antonio villarreal herrera'
p757
g38
sS'adriana lopez mara\xc3\x91on'
p758
g8
sS'beatriz del carmen diaz leon'
p759
g44
sS'julio vinicio lara mendoza'
p760
g4
sS'andres martinez moreno'
p761
g44
sS'hector pablo ramirez puga leyva'
p762
g20
sS'elvia dora garcia carreon'
p763
g13
sS'ninfa torres ibarra'
p764
g8
sS'ruth alejandra lopez hernandez'
p765
g20
sS'fernando pacheco martinez'
p766
g13
sS'melba patricia nando preciado'
p767
g17
sS'aurora del rocio mena pastrano'
p768
g8
sS'jose luis ovando patron'
p769
g20
sS'antonio cervantes morales'
p770
g13
sS'jaime serrano domiguez'
p771
g17
sS'aurelio chavez herrera'
p772
g13
sS'fernando humberto coello pedrero'
p773
g4
sS'guadalupe ana karen guerrero duran'
p774
g24
sS'angelica rosalia cardenas silva'
p775
g38
sS'alfonso regino elorriaga gonzalez'
p776
g38
sS'elsa guadalupe elenes valenzuela'
p777
g41
sS'edgar rodolfo olaiz ortiz'
p778
g13
sS'yasmin carcamo juarez'
p779
g41
sS'humberto roman cuevas rodriguez'
p780
g2
sS'aurelio fregoso romero'
p781
g8
sS'olga mabel lopez perez'
p782
g10
sS'alejandra lopez arreguin'
p783
g2
sS'jorge bastida rodriguez'
p784
g38
sS'roberto arturo jimenez garza'
p785
g17
sS'luz marina morales bustamante'
p786
g4
sS'alicia cortes mercado'
p787
g38
sS'ricardo monreal avila'
p788
g4
sS'griselda navarro murillo'
p789
g2
sS'jose antonio gomez villareal'
p790
g2
sS'edmond assad bojalil zacarias'
p791
g38
sS'juana adelfa delgado quintana'
p792
g66
sS'lucia janette nu\xc3\x91ez gallegos'
p793
g41
sS'jose armando acosta sanchez'
p794
g6
sS'marisa librada perez l\xc3\x93pez'
p795
g17
sS'roque filiberto vazquez solis'
p796
g2
sS'leopoldo perez mendieta'
p797
g8
sS'jose pablo partida escobosa'
p798
g20
sS'laura esquivel torres'
p799
g20
sS'pioquinto damian huato'
p800
g20
sS'leobardo ortiz fuentes'
p801
g38
sS'cinthia gabriela ramirez fernandez'
p802
g66
sS'arturo alvarez angli'
p803
g10
sS'juan manuel focil perez'
p804
g20
sS'maria teresa ruiz acevedo'
p805
g41
sS'gushenka karen gallegos salazar'
p806
g38
sS'gloria carrillo salinas'
p807
g13
sS'xochitl angelica martinez contreras'
p808
g13
sS'victor esteban rojano delgado'
p809
g13
sS'edmundo jose maron manzur'
p810
g20
sS'mayra rios gandara'
p811
g8
sS'norma viviana aguayo morales'
p812
g17
sS'gabriela sarai ornelas alvarez'
p813
g17
sS'nahum garcia castro'
p814
g66
sS'gelacio montiel fuentes'
p815
g20
sS'j. felix salgado macedonio'
p816
g24
sS'cora cecilia pinedo alonso'
p817
g24
sS'salvador ornelas ferreira'
p818
g17
sS'josefina villanueva padilla'
p819
g8
sS'luis lino hernandez espinoza'
p820
g41
sS'martin carrillo guzman'
p821
g8
sS'jose lopez duarte'
p822
g44
sS'francisco alejandro carrillo flores'
p823
g17
sS'javier casta\xc3\x91eda ibarra el chino'
p824
g17
sS'juan antonio mart\xc3\x8dn del campo mart\xc3\x8dn del campo'
p825
g20
sS'idalia limon cordova'
p826
g20
sS'oscar omar castillo castillo'
p827
g6
sS'ofelia socorro jasso nieto'
p828
g13
sS'wendy anahi mejia flores'
p829
g6
sS'francisco alfonso durazo monta\xc3\x91o'
p830
g24
sS'miguel flores lima'
p831
g17
sS'diana margarita vazquez ortega'
p832
g17
sS'ruth karina escobar gonzalez'
p833
g10
sS'maria belen del carmen monta\xc3\x91o salcido'
p834
g6
sS'faustino lopez vargas'
p835
g24
sS'martha lucia micher camarena'
p836
g24
sS'eduardo hernandez correa'
p837
g13
sS'juan jose jimenez ya\xc3\x91ez'
p838
g24
sS'jesus francisco valencia teran'
p839
g6
sS'concepci\xc3\x93n sofia robles altamirano'
p840
g41
sS'maribel vargas licea'
p841
g6
sS'margarita montes villalva'
p842
g4
sS'concepcion rueda gomez'
p843
g24
sS'arturo bours griffith'
p844
g24
sS'jose alberto galarza villase\xc3\x91or'
p845
g20
sS'ricardo fabian perez zamora'
p846
g2
sS'raul martinez mu\xc3\x91oz'
p847
g17
sS'indira kempis martinez'
p848
g38
sS'nereyda izaguirre perez'
p849
g8
sS'elisa ileana de robles ramirez'
p850
g24
sS'elizabeth avila carrancio'
p851
g24
sS'maria de lourdes senties rivas'
p852
g17
sS'pedro rodriguez l\xc3\x93pez'
p853
g17
sS'alejandro arregui ibarra'
p854
g13
sS'vianey gomez morales'
p855
g66
sS'alma rosa ollervides gonzalez'
p856
g41
sS'maria elena abaroa lopez'
p857
g38
sS'maria del rosario torres salcedo'
p858
g17
sS'lilia ibarra campos'
p859
g10
sS'maria guadalupe cecilia romero castillo'
p860
g6
sS'hilda mariana cruz pool'
p861
g24
sS'elba del socorro cantarell rodriguez'
p862
g44
sS'karla guadalupe mendez cario'
p863
g8
sS'jesus alejandro perez sanchez'
p864
g2
sS'javier may rodriguez'
p865
g24
sS'jose gonz\xc3\x81lez mart\xc3\x8dnez'
p866
g17
sS'alejandro vazquez gonzalez'
p867
g44
sS'miguel guadalupe baas poot'
p868
g8
sS'jose guadalupe hernandez vieyra'
p869
g66
sS'alma berenice hernandez escobar'
p870
g13
sS'bertha alicia sanchez lara'
p871
g38
sS'patricia aguilar garcia'
p872
g20
sS'christian gregorio diaz carrasco'
p873
g20
sS'florentino dominguez ordo\xc3\x91ez'
p874
g10
sS'maria graciela gaitan diaz'
p875
g20
sS'maria del rocio flores cervantes'
p876
g41
sS'jose daniel avila espindola'
p877
g44
sS'jesus lopez olivas'
p878
g41
sS'mario miguel de la fuente zeind'
p879
g13
sS'maria guadalupe guadarrama zarate'
p880
g17
sS'lorena martinez rodriguez'
p881
g13
sS'dora patricia mercado castro'
p882
g38
sS'juan carlos natale lopez'
p883
g17
sS'raymundo king de la rosa'
p884
g10
sS'alvaro miranda pineda'
p885
g20
sS'mabel campos sandoval'
p886
g17
sS'hortencia figueroa peralta'
p887
g2
sS'raul bola\xc3\x91os cacho cue'
p888
g10
sS'gloria zambrano morales'
p889
g17
sS'abel frias hernandez'
p890
g44
sS'saul lopez sollano'
p891
g24
sS'jorge g\xc3\x93mez salazar'
p892
g17
sS'fernando escalona herrera'
p893
g2
sS'ricardo morales kuhn'
p894
g6
sS'guadalupe bautista pane'
p895
g8
sS'rosa maria adam tovar'
p896
g66
sS'alia lorena ibarra avalos'
p897
g13
sS'sonia ba\xc3\x91uelos sanchez'
p898
g8
sS'ivana marcela velazquez cruz'
p899
g17
sS'oscar eduardo ramirez aguilar'
p900
g24
sS'eduardo de la pe\xc3\x91a gait\xc3\x81n'
p901
g20
sS'rosa elba ramos espinosa'
p902
g44
sS'gema del carmen cortes hernandez'
p903
g4
sS'jose reyes baeza terrazas'
p904
g13
sS'carlos alfredo sosa avila'
p905
g8
sS'javier san martin jaramillo'
p906
g8
sS'martin reyes flores'
p907
g17
sS'miryam karina campos vega'
p908
g17
sS'manuela flores trevizo'
p909
g17
sS'maria de lourdes ramirez urzua'
p910
g2
sS'roberto chac\xc3\x93n c\xc3\x81rdenas'
p911
g6
sS'maria elena carrillo sosa'
p912
g44
sS'darina marquez uribe'
p913
g20
sS'zorayla lopez ordaz'
p914
g2
sS'lilia margarita valdez martinez'
p915
g24
sS'nora liliana oropeza olguin'
p916
g10
sS'gustavo enrique madero mu\xc3\x91oz'
p917
g20
sS'maria teresa dominguez rivera'
p918
g2
sS'alfredo salome baltazar gomez'
p919
g41
sS'audelia esthela villarreal zavala'
p920
g20
sS'alejandro ponce larrinua'
p921
g24
sS'sonia catalina alvarez'
p922
g44
sS'marti batres guadarrama'
p923
g24
sS'yadhira yvette tamayo herrera'
p924
g6
sS'mayra diaz guerra'
p925
g13
sS'raul de jesus elenes angulo'
p926
g24
sS'juan jaime robles rodriguez'
p927
g44
sS'alejandro camacho primero'
p928
g17
sS'alfredo reyes cervantes'
p929
g41
sS'laura maria de jesus rodriguez ramirez'
p930
g4
sS'sasil dora luz de leon villard'
p931
g24
sS'martha de los santos gonzalez'
p932
g13
sS'martha elena morga arias'
p933
g10
sS'margarita ruiz beltran'
p934
g2
sS'lorena cano lopez'
p935
g13
sS'ma. soledad saucedo venegas'
p936
g8
sS'jesus guadalupe ojeda alvarado'
p937
g66
sS'raul rodriguez marquez'
p938
g10
sS'irazema vasquez ruiz'
p939
g6
sS'flor pilar cazares holguin'
p940
g24
sS'hector sendel cardiel soto'
p941
g41
sS'emilio alvarez icaza longoria'
p942
g20
sS'sergio sandoval chavez'
p943
g8
sS'maria del rocio rebollo mendoza'
p944
g13
sS'jesus horacio gonzalez delgadillo'
p945
g6
sS'angelica garcia arrieta'
p946
g4
sS'ramon hernandez perez'
p947
g8
sS'alberto sastre perez'
p948
g41
sS'lucia rosales villegas'
p949
g2
sS'veronica martinez garcia'
p950
g10
sS'soledad romero espinal'
p951
g66
sS'dora amelia gutierrez rodriguez'
p952
g38
sS'aida arregui guerrero'
p953
g41
sS'claudia lopez facio'
p954
g2
sS'candita victoria gil jimenez'
p955
g13
sS'mario torres carbajal'
p956
g2
sS'joanna alejandra felipe torres'
p957
g6
sS'amelia trinidad cuellar cruz'
p958
g8
sS'esther pati\xc3\x91o ceja'
p959
g10
sS'kathya maria flores puertos'
p960
g13
sS'yvett salazar torres'
p961
g10
sS'gabriela trejo trejo'
p962
g2
sS'maria alondra rivera garcia'
p963
g17
sS'judith fabiola vazquez saut'
p964
g6
sS'olga maria del carmen sanchez cordero davila'
p965
g4
sS'eduardo miguel achach iglesias'
p966
g8
sS'juan antonio ixtlahuac orihuela'
p967
g13
sS'adolfo ruiz calzada'
p968
g44
sS'miguel angel osorio chong'
p969
g13
sS'maria de jesus aparicio garcia'
p970
g41
sS'janice thalia gurrion moreno'
p971
g41
sS'ricardo oswaldo olivares mena'
p972
g20
sS'jaime alvaro hernandez martinez'
p973
g2
sS'jorge alberto habib abimerhi'
p974
g10
sS'maria guadalupe salda\xc3\x91a garcia'
p975
g66
sS'jose apolonio albavera velazquez'
p976
g4
sS'nayar mayorquin carrillo'
p977
g4
sS'felicitas martinez solano'
p978
g24
sS'silvia martinez alfaro'
p979
g44
sS'eunice rios lara'
p980
g2
sS'samanta marisol dorantes avila'
p981
g2
sS'guadalupe isadora santiva\xc3\x91ez rios'
p982
g13
sS'genaro vazquez solis'
p983
g2
sS'vanessa rubio marquez'
p984
g13
sS'mario zamora gastelum'
p985
g10
sS'sahili tanzania cortes garcia'
p986
g8
sS'ramon saul meneses perez'
p987
g6
sS'juan carlos alberto olivares guerrero'
p988
g8
sS'martha elizabeth diaz rivera'
p989
g8
sS'sonia alejandrina martinez mendoza'
p990
g10
sS'monica trevizo vasquez'
p991
g24
sS'marco alberto reyes hernandez'
p992
g20
sS'vania roxana avila garcia'
p993
g38
sS'jose antonio cruz alvarez lima'
p994
g4
sS'marko antonio cortes mendoza'
p995
g6
sS'inocencio juvencio hernandez hernandez'
p996
g41
sS'cinthya elena del carmen chapa montoya'
p997
g13
sS'gloria sanchez hernandez'
p998
g24
sS'antonio perez garibay'
p999
g24
sS'marcelina carrillo moreno'
p1000
g38
sS'lenin lopez nelio lopez'
p1001
g20
sS'jose pedro kumamoto aguilar'
p1002
g66
sS'nallely guevara romo'
p1003
g38
sS'eli cesar eduardo cervantes rojas'
p1004
g24
sS'gilberto herrera ruiz'
p1005
g24
sS'silvia romero suarez'
p1006
g20
sS'evelia sandoval urban'
p1007
g10
sS'brenda alejandra pe\xc3\x91a lucio'
p1008
g17
sS'odette isabel cevallos saad'
p1009
g13
sS'maria del socorro figueroa andrade'
p1010
g20
sS'sergio guerra lopez negrete'
p1011
g6
sS'delfina gomez alvarez'
p1012
g24
sS'daniel gutierrez castorena'
p1013
g24
sS'adriana aguilar ramirez'
p1014
g6
sS'roberto ruiz angeles'
p1015
g13
sS'alejandro rojas diaz duran'
p1016
g4
sS'illiana silva barrios'
p1017
g17
sS'leticia pe\xc3\x91a ocampo'
p1018
g24
sS'rogerio castro vazquez'
p1019
g24
sS'mario ramos del carmen'
p1020
g20
sS'alberto cundapi nu\xc3\x91ez'
p1021
g4
sS'krystal zumaya gomez'
p1022
g2
sS'alexis cede\xc3\x91o alfonso'
p1023
g8
sS'diana yirhat paredes de la cruz'
p1024
g44
sS'alejandra maria sada alanis'
p1025
g6
sS'yazmin preciado romero'
p1026
g2
sS'rolando meza castillo'
p1027
g44
sS'irma paola escobosa hach'
p1028
g13
sS'maria celeste sanchez sugia'
p1029
g24
sS'esteban covarrubias rodriguez'
p1030
g8
sS'luis alejandro guevara cobos'
p1031
g13
sS'claudia herrera rodriguez'
p1032
g24
sS'paola jacqueline hernandez reyes'
p1033
g38
sS'sergio nahum leon hernandez'
p1034
g17
sS'maria de jesus huerta rea'
p1035
g13
sS'luis roa escalona'
p1036
g6
sS'claudia leticia hirales meza'
p1037
g13
sS'martha elva martinez martinez'
p1038
g41
sS'sergio rene quevedo nu\xc3\x91ez'
p1039
g6
sS'anayeli mu\xc3\x91oz moreno'
p1040
g13
sS'yrma teresa caamal serra'
p1041
g44
sS'angel de jesus arroyo torres'
p1042
g44
sS'javier ornelas i\xc3\x91iguez'
p1043
g8
sS'fredy fernando martinez quijano'
p1044
g10
sS'azul etcheverry aranda'
p1045
g13
sS'alma evelia moran gonzalez'
p1046
g13
sS'rosa elena millan bueno'
p1047
g10
sS'alberto anaya gutierrez'
p1048
g44
sS'bertha xochitl galvez ruiz'
p1049
g2
sS'mayuli latifa martinez simon'
p1050
g20
sS'carlos palacios hernandez'
p1051
g13
sS'nallely ileana gutierrez gijon'
p1052
g13
sS'gustavo perez martinez'
p1053
g17
sS'gabriel garcia hernandez'
p1054
g4
sS'gloria elizabeth nu\xc3\x91ez sanchez'
p1055
g20
sS'olivia martinez gomez'
p1056
g44
sS'juan francisco hernandez ramos'
p1057
g24
sS'victor hugo alcantara suarez'
p1058
g38
sS'victor manuel aguilar carrillo'
p1059
g41
sS'jose clemente casta\xc3\x91eda hoeflich'
p1060
g20
sS'juan carlos casta\xc3\x91eda ramirez'
p1061
g17
sS'anabelle gutierrez sanchez'
p1062
g10
sS'carlos francisco caltenco serrano'
p1063
g2
sS'juan mauricio alonso guirao'
p1064
g10
sS'veronica judith corona gonzalez'
p1065
g17
sS'santiago sanchez ballesteros'
p1066
g17
sS'jorge carlos ramirez marin'
p1067
g10
sS'alejandrina moreno romero'
p1068
g41
sS'isaias villa gonzalez'
p1069
g2
sS'rafael flores mendoza'
p1070
g20
sS'alfonso fong dubon'
p1071
g20
sS'jesus perez albarran'
p1072
g41
sS'alfonso rodriguez dominguez'
p1073
g20
sS'maria elena valenzuela valenzuela'
p1074
g41
sS'angel garcia ya\xc3\x91ez'
p1075
g10
sS'isidro duarte cabrera'
p1076
g2
sS'alberto higuera zu\xc3\x91iga'
p1077
g8
sS'mirelle viridiana martinez martinez'
p1078
g38
sS'irma vazquez hidalgo'
p1079
g41
sS'alejandra riquelme alcantar'
p1080
g6
sS'isauro javier gonzalez salazar'
p1081
g17
sS'mirelle alejandra montes agredano'
p1082
g6
sS'ricardo alfredo fematt torres'
p1083
g13
sS'edgardo gilberto medina rodriguez'
p1084
g24
sS'jose everardo nava gomez'
p1085
g10
sS'katya elizabeth avila vazquez'
p1086
g4
sS'leslie casandra gonzalez castillo'
p1087
g41
sS'irma wendolin estrada alfaro'
p1088
g38
sS'carlos emilio del rivero romero'
p1089
g20
sS'jose miguel taniyama ceballos'
p1090
g66
sS'carlos alberto estrada mejia'
p1091
g4
sS'maria elena orantes lopez'
p1092
g38
sS'israel flores hernandez'
p1093
g4
sS'thania luna lopez'
p1094
g13
sS'itzel alejandra tlali zu\xc3\x91iga'
p1095
g2
sS'hector aguilar mu\xc3\x91oz'
p1096
g17
sS'veronica hernandez tenorio'
p1097
g8
sS'charbel jorge estefan chidiac'
p1098
g13
sS'gloria lizbeth delgadillo islas'
p1099
g44
sS'miguel angel sotelo hernandez'
p1100
g17
sS'erendira escobedo zavaleta'
p1101
g44
sS'efrain monrreal gastelum'
p1102
g8
sS'deny adeilaide viniegra rodriguez'
p1103
g8
sS'ickov s ivan alvarez delgado'
p1104
g8
sS'victor antonio corrales burgue\xc3\x91o'
p1105
g20
sS'montserrat fernandez cruz'
p1106
g17
sS'ignacio anaya barriguete'
p1107
g17
sS'dulce mariela horcasitas de la rosa'
p1108
g8
sS'elizabeth rosiles duran'
p1109
g44
sS'miguel angel navarro quintero'
p1110
g24
sS'bertha elena lujan uranga'
p1111
g4
sS'elvia marcela mora arellano'
p1112
g4
sS'jose nieves garcia caro'
p1113
g8
sS'arnulfo moreno garcia'
p1114
g13
sS'maria marena lopez garcia'
p1115
g10
sS'yaneth nambo cadeza'
p1116
g4
s.