(dp0
S''
p1
(dp2
S'PAN'
p3
I0
ssS'ricardo flores suarez'
p4
(dp5
g3
I0
ssS'annia sarahi gomez cardenas'
p6
(dp7
g3
I0
ssS'maria alejandra hinojosa maldonado'
p8
(dp9
g3
I0
ssS'juan ramon mastretta lopez'
p10
(dp11
g3
I0
ssS'tania elizabeth partida hernandez'
p12
(dp13
g3
I0
ssS'gerardo vargas salgado'
p14
(dp15
g3
I0
ssS'maria del rocio gadarrama garcia'
p16
(dp17
g3
I0
ssS'ernesto alfonso robledo leal'
p18
(dp19
g3
I0
ssS'bertha martinez morin'
p20
(dp21
g3
I0
ssS'emmanuel alberto mojica linares'
p22
(dp23
g3
I0
ssS'jose martin lopez cisneros'
p24
(dp25
g3
I0
ssS'monica reyes carmona'
p26
(dp27
g3
I0
ssS'hernan salinas wolberg'
p28
(dp29
g3
I0
ssS'silvia georgina aguilar garza'
p30
(dp31
g3
I0
ssS'maria del carmen pe\xc3\xb1a dorado'
p32
(dp33
g3
I0
ssS'oscar alejandro flores escobar'
p34
(dp35
g3
I0
ssS'elizabeth del carmen duro sanchez '
p36
(dp37
g3
I0
ss.